Archive member included to satisfy reference by file (symbol)

/opt/homebrew/Cellar/arm-gcc-bin@8/8-2019-q3-update_1/bin/../lib/gcc/arm-none-eabi/8.3.1/thumb/v7e-m+fp/hard/libgcc.a(_arm_addsubdf3.o)
                              .build/obj_massdrop_ctrl_default/protocol/arm_atsam/main_arm_atsam.o (__aeabi_dadd)
/opt/homebrew/Cellar/arm-gcc-bin@8/8-2019-q3-update_1/bin/../lib/gcc/arm-none-eabi/8.3.1/thumb/v7e-m+fp/hard/libgcc.a(_arm_muldivdf3.o)
                              .build/obj_massdrop_ctrl_default/protocol/arm_atsam/main_arm_atsam.o (__aeabi_dmul)
/opt/homebrew/Cellar/arm-gcc-bin@8/8-2019-q3-update_1/bin/../lib/gcc/arm-none-eabi/8.3.1/thumb/v7e-m+fp/hard/libgcc.a(_arm_fixunsdfsi.o)
                              .build/obj_massdrop_ctrl_default/protocol/arm_atsam/main_arm_atsam.o (__aeabi_d2uiz)
/opt/homebrew/Cellar/arm-gcc-bin@8/8-2019-q3-update_1/bin/../lib/gcc/arm-none-eabi/8.3.1/thumb/v7e-m+fp/hard/libgcc.a(_aeabi_ldivmod.o)
                              .build/obj_massdrop_ctrl_default/protocol/arm_atsam/usb/usb_util.o (__aeabi_ldivmod)
/opt/homebrew/Cellar/arm-gcc-bin@8/8-2019-q3-update_1/bin/../lib/gcc/arm-none-eabi/8.3.1/thumb/v7e-m+fp/hard/libgcc.a(_aeabi_uldivmod.o)
                              .build/obj_massdrop_ctrl_default/protocol/arm_atsam/usb/usb_hub.o (__aeabi_uldivmod)
/opt/homebrew/Cellar/arm-gcc-bin@8/8-2019-q3-update_1/bin/../lib/gcc/arm-none-eabi/8.3.1/thumb/v7e-m+fp/hard/libgcc.a(_udivmoddi4.o)
                              /opt/homebrew/Cellar/arm-gcc-bin@8/8-2019-q3-update_1/bin/../lib/gcc/arm-none-eabi/8.3.1/thumb/v7e-m+fp/hard/libgcc.a(_aeabi_ldivmod.o) (__udivmoddi4)
/opt/homebrew/Cellar/arm-gcc-bin@8/8-2019-q3-update_1/bin/../lib/gcc/arm-none-eabi/8.3.1/thumb/v7e-m+fp/hard/libgcc.a(_dvmd_tls.o)
                              /opt/homebrew/Cellar/arm-gcc-bin@8/8-2019-q3-update_1/bin/../lib/gcc/arm-none-eabi/8.3.1/thumb/v7e-m+fp/hard/libgcc.a(_aeabi_ldivmod.o) (__aeabi_ldiv0)
/opt/homebrew/Cellar/arm-gcc-bin@8/8-2019-q3-update_1/bin/../lib/gcc/arm-none-eabi/8.3.1/../../../../arm-none-eabi/lib/thumb/v7e-m+fp/hard/libg.a(lib_a-ctype_.o)
                              .build/obj_massdrop_ctrl_default/quantum/send_string.o (_ctype_)
/opt/homebrew/Cellar/arm-gcc-bin@8/8-2019-q3-update_1/bin/../lib/gcc/arm-none-eabi/8.3.1/../../../../arm-none-eabi/lib/thumb/v7e-m+fp/hard/libg.a(lib_a-exit.o)
                              /opt/homebrew/Cellar/arm-gcc-bin@8/8-2019-q3-update_1/bin/../lib/gcc/arm-none-eabi/8.3.1/../../../../arm-none-eabi/lib/thumb/v7e-m+fp/hard/rdimon-crt0.o (exit)
/opt/homebrew/Cellar/arm-gcc-bin@8/8-2019-q3-update_1/bin/../lib/gcc/arm-none-eabi/8.3.1/../../../../arm-none-eabi/lib/thumb/v7e-m+fp/hard/libg.a(lib_a-impure.o)
                              /opt/homebrew/Cellar/arm-gcc-bin@8/8-2019-q3-update_1/bin/../lib/gcc/arm-none-eabi/8.3.1/../../../../arm-none-eabi/lib/thumb/v7e-m+fp/hard/libg.a(lib_a-exit.o) (_global_impure_ptr)
/opt/homebrew/Cellar/arm-gcc-bin@8/8-2019-q3-update_1/bin/../lib/gcc/arm-none-eabi/8.3.1/../../../../arm-none-eabi/lib/thumb/v7e-m+fp/hard/libg.a(lib_a-init.o)
                              /opt/homebrew/Cellar/arm-gcc-bin@8/8-2019-q3-update_1/bin/../lib/gcc/arm-none-eabi/8.3.1/../../../../arm-none-eabi/lib/thumb/v7e-m+fp/hard/rdimon-crt0.o (__libc_init_array)
/opt/homebrew/Cellar/arm-gcc-bin@8/8-2019-q3-update_1/bin/../lib/gcc/arm-none-eabi/8.3.1/../../../../arm-none-eabi/lib/thumb/v7e-m+fp/hard/libg.a(lib_a-memcmp.o)
                              .build/obj_massdrop_ctrl_default/quantum/matrix.o (memcmp)
/opt/homebrew/Cellar/arm-gcc-bin@8/8-2019-q3-update_1/bin/../lib/gcc/arm-none-eabi/8.3.1/../../../../arm-none-eabi/lib/thumb/v7e-m+fp/hard/libg.a(lib_a-memcpy.o)
                              .build/obj_massdrop_ctrl_default/quantum/rgb_matrix/rgb_matrix.o (memcpy)
/opt/homebrew/Cellar/arm-gcc-bin@8/8-2019-q3-update_1/bin/../lib/gcc/arm-none-eabi/8.3.1/../../../../arm-none-eabi/lib/thumb/v7e-m+fp/hard/libg.a(lib_a-memset.o)
                              /opt/homebrew/Cellar/arm-gcc-bin@8/8-2019-q3-update_1/bin/../lib/gcc/arm-none-eabi/8.3.1/../../../../arm-none-eabi/lib/thumb/v7e-m+fp/hard/rdimon-crt0.o (memset)
/opt/homebrew/Cellar/arm-gcc-bin@8/8-2019-q3-update_1/bin/../lib/gcc/arm-none-eabi/8.3.1/../../../../arm-none-eabi/lib/thumb/v7e-m+fp/hard/libg.a(lib_a-rand.o)
                              .build/obj_massdrop_ctrl_default/quantum/send_string.o (rand)
/opt/homebrew/Cellar/arm-gcc-bin@8/8-2019-q3-update_1/bin/../lib/gcc/arm-none-eabi/8.3.1/../../../../arm-none-eabi/lib/thumb/v7e-m+fp/hard/libg.a(lib_a-__call_atexit.o)
                              /opt/homebrew/Cellar/arm-gcc-bin@8/8-2019-q3-update_1/bin/../lib/gcc/arm-none-eabi/8.3.1/../../../../arm-none-eabi/lib/thumb/v7e-m+fp/hard/libg.a(lib_a-exit.o) (__call_exitprocs)
/opt/homebrew/Cellar/arm-gcc-bin@8/8-2019-q3-update_1/bin/../lib/gcc/arm-none-eabi/8.3.1/../../../../arm-none-eabi/lib/thumb/v7e-m+fp/hard/libg.a(lib_a-atexit.o)
                              /opt/homebrew/Cellar/arm-gcc-bin@8/8-2019-q3-update_1/bin/../lib/gcc/arm-none-eabi/8.3.1/../../../../arm-none-eabi/lib/thumb/v7e-m+fp/hard/libg.a(lib_a-__call_atexit.o) (atexit)
/opt/homebrew/Cellar/arm-gcc-bin@8/8-2019-q3-update_1/bin/../lib/gcc/arm-none-eabi/8.3.1/../../../../arm-none-eabi/lib/thumb/v7e-m+fp/hard/libg.a(lib_a-fini.o)
                              /opt/homebrew/Cellar/arm-gcc-bin@8/8-2019-q3-update_1/bin/../lib/gcc/arm-none-eabi/8.3.1/../../../../arm-none-eabi/lib/thumb/v7e-m+fp/hard/libg.a(lib_a-__call_atexit.o) (__libc_fini_array)
/opt/homebrew/Cellar/arm-gcc-bin@8/8-2019-q3-update_1/bin/../lib/gcc/arm-none-eabi/8.3.1/../../../../arm-none-eabi/lib/thumb/v7e-m+fp/hard/libg.a(lib_a-lock.o)
                              /opt/homebrew/Cellar/arm-gcc-bin@8/8-2019-q3-update_1/bin/../lib/gcc/arm-none-eabi/8.3.1/../../../../arm-none-eabi/lib/thumb/v7e-m+fp/hard/libg.a(lib_a-__call_atexit.o) (__retarget_lock_acquire_recursive)
/opt/homebrew/Cellar/arm-gcc-bin@8/8-2019-q3-update_1/bin/../lib/gcc/arm-none-eabi/8.3.1/../../../../arm-none-eabi/lib/thumb/v7e-m+fp/hard/libg.a(lib_a-__atexit.o)
                              /opt/homebrew/Cellar/arm-gcc-bin@8/8-2019-q3-update_1/bin/../lib/gcc/arm-none-eabi/8.3.1/../../../../arm-none-eabi/lib/thumb/v7e-m+fp/hard/libg.a(lib_a-atexit.o) (__register_exitproc)
/opt/homebrew/Cellar/arm-gcc-bin@8/8-2019-q3-update_1/bin/../lib/gcc/arm-none-eabi/8.3.1/../../../../arm-none-eabi/lib/thumb/v7e-m+fp/hard/librdimon.a(rdimon-syscalls.o)
                              /opt/homebrew/Cellar/arm-gcc-bin@8/8-2019-q3-update_1/bin/../lib/gcc/arm-none-eabi/8.3.1/../../../../arm-none-eabi/lib/thumb/v7e-m+fp/hard/rdimon-crt0.o (initialise_monitor_handles)
/opt/homebrew/Cellar/arm-gcc-bin@8/8-2019-q3-update_1/bin/../lib/gcc/arm-none-eabi/8.3.1/../../../../arm-none-eabi/lib/thumb/v7e-m+fp/hard/librdimon.a(rdimon-_exit.o)
                              /opt/homebrew/Cellar/arm-gcc-bin@8/8-2019-q3-update_1/bin/../lib/gcc/arm-none-eabi/8.3.1/../../../../arm-none-eabi/lib/thumb/v7e-m+fp/hard/libg.a(lib_a-exit.o) (_exit)
/opt/homebrew/Cellar/arm-gcc-bin@8/8-2019-q3-update_1/bin/../lib/gcc/arm-none-eabi/8.3.1/../../../../arm-none-eabi/lib/thumb/v7e-m+fp/hard/librdimon.a(rdimon-_kill.o)
                              /opt/homebrew/Cellar/arm-gcc-bin@8/8-2019-q3-update_1/bin/../lib/gcc/arm-none-eabi/8.3.1/../../../../arm-none-eabi/lib/thumb/v7e-m+fp/hard/librdimon.a(rdimon-_exit.o) (_kill_shared)
/opt/homebrew/Cellar/arm-gcc-bin@8/8-2019-q3-update_1/bin/../lib/gcc/arm-none-eabi/8.3.1/../../../../arm-none-eabi/lib/thumb/v7e-m+fp/hard/libc.a(lib_a-errno.o)
                              /opt/homebrew/Cellar/arm-gcc-bin@8/8-2019-q3-update_1/bin/../lib/gcc/arm-none-eabi/8.3.1/../../../../arm-none-eabi/lib/thumb/v7e-m+fp/hard/librdimon.a(rdimon-syscalls.o) (__errno)
/opt/homebrew/Cellar/arm-gcc-bin@8/8-2019-q3-update_1/bin/../lib/gcc/arm-none-eabi/8.3.1/../../../../arm-none-eabi/lib/thumb/v7e-m+fp/hard/libc.a(lib_a-findfp.o)
                              /opt/homebrew/Cellar/arm-gcc-bin@8/8-2019-q3-update_1/bin/../lib/gcc/arm-none-eabi/8.3.1/../../../../arm-none-eabi/lib/thumb/v7e-m+fp/hard/librdimon.a(rdimon-syscalls.o) (__sinit)
/opt/homebrew/Cellar/arm-gcc-bin@8/8-2019-q3-update_1/bin/../lib/gcc/arm-none-eabi/8.3.1/../../../../arm-none-eabi/lib/thumb/v7e-m+fp/hard/libc.a(lib_a-fwalk.o)
                              /opt/homebrew/Cellar/arm-gcc-bin@8/8-2019-q3-update_1/bin/../lib/gcc/arm-none-eabi/8.3.1/../../../../arm-none-eabi/lib/thumb/v7e-m+fp/hard/libc.a(lib_a-findfp.o) (_fwalk)
/opt/homebrew/Cellar/arm-gcc-bin@8/8-2019-q3-update_1/bin/../lib/gcc/arm-none-eabi/8.3.1/../../../../arm-none-eabi/lib/thumb/v7e-m+fp/hard/libc.a(lib_a-mallocr.o)
                              /opt/homebrew/Cellar/arm-gcc-bin@8/8-2019-q3-update_1/bin/../lib/gcc/arm-none-eabi/8.3.1/../../../../arm-none-eabi/lib/thumb/v7e-m+fp/hard/libc.a(lib_a-findfp.o) (_malloc_r)
/opt/homebrew/Cellar/arm-gcc-bin@8/8-2019-q3-update_1/bin/../lib/gcc/arm-none-eabi/8.3.1/../../../../arm-none-eabi/lib/thumb/v7e-m+fp/hard/libc.a(lib_a-mlock.o)
                              /opt/homebrew/Cellar/arm-gcc-bin@8/8-2019-q3-update_1/bin/../lib/gcc/arm-none-eabi/8.3.1/../../../../arm-none-eabi/lib/thumb/v7e-m+fp/hard/libc.a(lib_a-mallocr.o) (__malloc_lock)
/opt/homebrew/Cellar/arm-gcc-bin@8/8-2019-q3-update_1/bin/../lib/gcc/arm-none-eabi/8.3.1/../../../../arm-none-eabi/lib/thumb/v7e-m+fp/hard/libc.a(lib_a-sbrkr.o)
                              /opt/homebrew/Cellar/arm-gcc-bin@8/8-2019-q3-update_1/bin/../lib/gcc/arm-none-eabi/8.3.1/../../../../arm-none-eabi/lib/thumb/v7e-m+fp/hard/libc.a(lib_a-mallocr.o) (_sbrk_r)
/opt/homebrew/Cellar/arm-gcc-bin@8/8-2019-q3-update_1/bin/../lib/gcc/arm-none-eabi/8.3.1/../../../../arm-none-eabi/lib/thumb/v7e-m+fp/hard/libc.a(lib_a-stdio.o)
                              /opt/homebrew/Cellar/arm-gcc-bin@8/8-2019-q3-update_1/bin/../lib/gcc/arm-none-eabi/8.3.1/../../../../arm-none-eabi/lib/thumb/v7e-m+fp/hard/libc.a(lib_a-findfp.o) (__sread)
/opt/homebrew/Cellar/arm-gcc-bin@8/8-2019-q3-update_1/bin/../lib/gcc/arm-none-eabi/8.3.1/../../../../arm-none-eabi/lib/thumb/v7e-m+fp/hard/libc.a(lib_a-strlen.o)
                              /opt/homebrew/Cellar/arm-gcc-bin@8/8-2019-q3-update_1/bin/../lib/gcc/arm-none-eabi/8.3.1/../../../../arm-none-eabi/lib/thumb/v7e-m+fp/hard/librdimon.a(rdimon-syscalls.o) (strlen)
/opt/homebrew/Cellar/arm-gcc-bin@8/8-2019-q3-update_1/bin/../lib/gcc/arm-none-eabi/8.3.1/../../../../arm-none-eabi/lib/thumb/v7e-m+fp/hard/libc.a(lib_a-writer.o)
                              /opt/homebrew/Cellar/arm-gcc-bin@8/8-2019-q3-update_1/bin/../lib/gcc/arm-none-eabi/8.3.1/../../../../arm-none-eabi/lib/thumb/v7e-m+fp/hard/libc.a(lib_a-stdio.o) (_write_r)
/opt/homebrew/Cellar/arm-gcc-bin@8/8-2019-q3-update_1/bin/../lib/gcc/arm-none-eabi/8.3.1/../../../../arm-none-eabi/lib/thumb/v7e-m+fp/hard/libc.a(lib_a-closer.o)
                              /opt/homebrew/Cellar/arm-gcc-bin@8/8-2019-q3-update_1/bin/../lib/gcc/arm-none-eabi/8.3.1/../../../../arm-none-eabi/lib/thumb/v7e-m+fp/hard/libc.a(lib_a-stdio.o) (_close_r)
/opt/homebrew/Cellar/arm-gcc-bin@8/8-2019-q3-update_1/bin/../lib/gcc/arm-none-eabi/8.3.1/../../../../arm-none-eabi/lib/thumb/v7e-m+fp/hard/libc.a(lib_a-fclose.o)
                              /opt/homebrew/Cellar/arm-gcc-bin@8/8-2019-q3-update_1/bin/../lib/gcc/arm-none-eabi/8.3.1/../../../../arm-none-eabi/lib/thumb/v7e-m+fp/hard/libc.a(lib_a-findfp.o) (_fclose_r)
/opt/homebrew/Cellar/arm-gcc-bin@8/8-2019-q3-update_1/bin/../lib/gcc/arm-none-eabi/8.3.1/../../../../arm-none-eabi/lib/thumb/v7e-m+fp/hard/libc.a(lib_a-fflush.o)
                              /opt/homebrew/Cellar/arm-gcc-bin@8/8-2019-q3-update_1/bin/../lib/gcc/arm-none-eabi/8.3.1/../../../../arm-none-eabi/lib/thumb/v7e-m+fp/hard/libc.a(lib_a-fclose.o) (__sflush_r)
/opt/homebrew/Cellar/arm-gcc-bin@8/8-2019-q3-update_1/bin/../lib/gcc/arm-none-eabi/8.3.1/../../../../arm-none-eabi/lib/thumb/v7e-m+fp/hard/libc.a(lib_a-freer.o)
                              /opt/homebrew/Cellar/arm-gcc-bin@8/8-2019-q3-update_1/bin/../lib/gcc/arm-none-eabi/8.3.1/../../../../arm-none-eabi/lib/thumb/v7e-m+fp/hard/libc.a(lib_a-mallocr.o) (_free_r)
/opt/homebrew/Cellar/arm-gcc-bin@8/8-2019-q3-update_1/bin/../lib/gcc/arm-none-eabi/8.3.1/../../../../arm-none-eabi/lib/thumb/v7e-m+fp/hard/libc.a(lib_a-lseekr.o)
                              /opt/homebrew/Cellar/arm-gcc-bin@8/8-2019-q3-update_1/bin/../lib/gcc/arm-none-eabi/8.3.1/../../../../arm-none-eabi/lib/thumb/v7e-m+fp/hard/libc.a(lib_a-stdio.o) (_lseek_r)
/opt/homebrew/Cellar/arm-gcc-bin@8/8-2019-q3-update_1/bin/../lib/gcc/arm-none-eabi/8.3.1/../../../../arm-none-eabi/lib/thumb/v7e-m+fp/hard/libc.a(lib_a-readr.o)
                              /opt/homebrew/Cellar/arm-gcc-bin@8/8-2019-q3-update_1/bin/../lib/gcc/arm-none-eabi/8.3.1/../../../../arm-none-eabi/lib/thumb/v7e-m+fp/hard/libc.a(lib_a-stdio.o) (_read_r)
/opt/homebrew/Cellar/arm-gcc-bin@8/8-2019-q3-update_1/bin/../lib/gcc/arm-none-eabi/8.3.1/../../../../arm-none-eabi/lib/thumb/v7e-m+fp/hard/libc.a(lib_a-reent.o)
                              /opt/homebrew/Cellar/arm-gcc-bin@8/8-2019-q3-update_1/bin/../lib/gcc/arm-none-eabi/8.3.1/../../../../arm-none-eabi/lib/thumb/v7e-m+fp/hard/libc.a(lib_a-sbrkr.o) (errno)

Allocating common symbols
Common symbol       size              file

dmac_desc_wb        0x10              .build/obj_massdrop_ctrl_default/protocol/arm_atsam/i2c_master.o
inbuf               0xc               .build/obj_massdrop_ctrl_default/protocol/arm_atsam/usb/udi_cdc.o
usb_gcr_auto        0x1               .build/obj_massdrop_ctrl_default/protocol/arm_atsam/usb/usb_hub.o
udd_ep_out_cache_buffer
                    0x100             .build/obj_massdrop_ctrl_default/protocol/arm_atsam/usb/usb_device_udd.o
usec_delay_mult     0x4               .build/obj_massdrop_ctrl_default/protocol/arm_atsam/clks.o
usb_descriptor_table
                    0x100             .build/obj_massdrop_ctrl_default/protocol/arm_atsam/usb/usb.o
__lock___atexit_recursive_mutex
                    0x1               /opt/homebrew/Cellar/arm-gcc-bin@8/8-2019-q3-update_1/bin/../lib/gcc/arm-none-eabi/8.3.1/../../../../arm-none-eabi/lib/thumb/v7e-m+fp/hard/libg.a(lib_a-lock.o)
udi_hid_nkro_b_report_valid
                    0x1               .build/obj_massdrop_ctrl_default/protocol/arm_atsam/usb/udi_hid_kbd.o
rgb_matrix_config   0x8               .build/obj_massdrop_ctrl_default/quantum/rgb_matrix/rgb_matrix.o
keymap_config       0x2               .build/obj_massdrop_ctrl_default/quantum/bootmagic/magic.o
__lock___arc4random_mutex
                    0x1               /opt/homebrew/Cellar/arm-gcc-bin@8/8-2019-q3-update_1/bin/../lib/gcc/arm-none-eabi/8.3.1/../../../../arm-none-eabi/lib/thumb/v7e-m+fp/hard/libg.a(lib_a-lock.o)
printbuf            0x1               .build/obj_massdrop_ctrl_default/protocol/arm_atsam/usb/udi_cdc.o
errno               0x4               /opt/homebrew/Cellar/arm-gcc-bin@8/8-2019-q3-update_1/bin/../lib/gcc/arm-none-eabi/8.3.1/../../../../arm-none-eabi/lib/thumb/v7e-m+fp/hard/libc.a(lib_a-reent.o)
usb_device          0xb4              .build/obj_massdrop_ctrl_default/protocol/arm_atsam/usb/usb_device_udd.o
udi_hid_kbd_report  0x8               .build/obj_massdrop_ctrl_default/protocol/arm_atsam/usb/udi_hid_kbd.o
led_states          0x1               .build/obj_massdrop_ctrl_default/protocol/arm_atsam/main_arm_atsam.o
udi_hid_kbd_b_report_valid
                    0x1               .build/obj_massdrop_ctrl_default/protocol/arm_atsam/usb/udi_hid_kbd.o
v_con_1_boot        0x2               .build/obj_massdrop_ctrl_default/protocol/arm_atsam/adc.o
issidrv             0x3c2             .build/obj_massdrop_ctrl_default/protocol/arm_atsam/md_rgb_matrix.o
__lock___env_recursive_mutex
                    0x1               /opt/homebrew/Cellar/arm-gcc-bin@8/8-2019-q3-update_1/bin/../lib/gcc/arm-none-eabi/8.3.1/../../../../arm-none-eabi/lib/thumb/v7e-m+fp/hard/libg.a(lib_a-lock.o)
led_buffer          0x165             .build/obj_massdrop_ctrl_default/protocol/arm_atsam/md_rgb_matrix.o
i2c_led_q_running   0x1               .build/obj_massdrop_ctrl_default/protocol/arm_atsam/i2c_master.o
__lock___sinit_recursive_mutex
                    0x1               /opt/homebrew/Cellar/arm-gcc-bin@8/8-2019-q3-update_1/bin/../lib/gcc/arm-none-eabi/8.3.1/../../../../arm-none-eabi/lib/thumb/v7e-m+fp/hard/libg.a(lib_a-lock.o)
sr_exp_data         0x2               .build/obj_massdrop_ctrl_default/protocol/arm_atsam/shift_register.o
gcr_desired         0x1               .build/obj_massdrop_ctrl_default/protocol/arm_atsam/md_rgb_matrix.o
debug_code          0x4               .build/obj_massdrop_ctrl_default/protocol/arm_atsam/d51_util.o
v_con_1             0x2               .build/obj_massdrop_ctrl_default/protocol/arm_atsam/adc.o
udi_hid_kbd_b_report_trans_ongoing
                    0x1               .build/obj_massdrop_ctrl_default/protocol/arm_atsam/usb/udi_hid_kbd.o
__lock___malloc_recursive_mutex
                    0x1               /opt/homebrew/Cellar/arm-gcc-bin@8/8-2019-q3-update_1/bin/../lib/gcc/arm-none-eabi/8.3.1/../../../../arm-none-eabi/lib/thumb/v7e-m+fp/hard/libg.a(lib_a-lock.o)
g_rgb_timer         0x4               .build/obj_massdrop_ctrl_default/quantum/rgb_matrix/rgb_matrix.o
udi_hid_exk_b_report_valid
                    0x1               .build/obj_massdrop_ctrl_default/protocol/arm_atsam/usb/udi_hid_kbd.o
usb_extra_state     0x1               .build/obj_massdrop_ctrl_default/protocol/arm_atsam/usb/usb_hub.o
udi_hid_nkro_b_report_trans_ongoing
                    0x1               .build/obj_massdrop_ctrl_default/protocol/arm_atsam/usb/udi_hid_kbd.o
udi_hid_exk_report_set
                    0x1               .build/obj_massdrop_ctrl_default/protocol/arm_atsam/usb/udi_hid_kbd.o
raw_matrix          0xb               .build/obj_massdrop_ctrl_default/quantum/matrix_common.o
udi_hid_nkro_report
                    0x20              .build/obj_massdrop_ctrl_default/protocol/arm_atsam/usb/udi_hid_kbd.o
system_clks         0x68              .build/obj_massdrop_ctrl_default/protocol/arm_atsam/clks.o
udd_g_ctrlreq       0x18              .build/obj_massdrop_ctrl_default/protocol/arm_atsam/usb/usb_device_udd.o
gcr_actual          0x1               .build/obj_massdrop_ctrl_default/protocol/arm_atsam/md_rgb_matrix.o
v_con_2             0x2               .build/obj_massdrop_ctrl_default/protocol/arm_atsam/adc.o
ms_clk              0x8               .build/obj_massdrop_ctrl_default/protocol/arm_atsam/clks.o
usb_extra_manual    0x1               .build/obj_massdrop_ctrl_default/protocol/arm_atsam/usb/usb_hub.o
matrix              0xb               .build/obj_massdrop_ctrl_default/quantum/matrix_common.o
udi_hid_exk_report  0x3               .build/obj_massdrop_ctrl_default/protocol/arm_atsam/usb/udi_hid_kbd.o
tp_buttons          0x4               .build/obj_massdrop_ctrl_default/quantum/action.o
v_con_2_boot        0x2               .build/obj_massdrop_ctrl_default/protocol/arm_atsam/adc.o
v_5v                0x2               .build/obj_massdrop_ctrl_default/protocol/arm_atsam/adc.o
dmac_desc           0x10              .build/obj_massdrop_ctrl_default/protocol/arm_atsam/i2c_master.o
g_last_hit_tracker  0x29              .build/obj_massdrop_ctrl_default/quantum/rgb_matrix/rgb_matrix.o
adc_extra           0x2               .build/obj_massdrop_ctrl_default/protocol/arm_atsam/usb/usb_hub.o
udi_hid_nkro_report_set
                    0x1               .build/obj_massdrop_ctrl_default/protocol/arm_atsam/usb/udi_hid_kbd.o
usb_host_port       0x1               .build/obj_massdrop_ctrl_default/protocol/arm_atsam/usb/usb_hub.o
__lock___at_quick_exit_mutex
                    0x1               /opt/homebrew/Cellar/arm-gcc-bin@8/8-2019-q3-update_1/bin/../lib/gcc/arm-none-eabi/8.3.1/../../../../arm-none-eabi/lib/thumb/v7e-m+fp/hard/libg.a(lib_a-lock.o)
gcr_actual_last     0x1               .build/obj_massdrop_ctrl_default/protocol/arm_atsam/md_rgb_matrix.o
__lock___dd_hash_mutex
                    0x1               /opt/homebrew/Cellar/arm-gcc-bin@8/8-2019-q3-update_1/bin/../lib/gcc/arm-none-eabi/8.3.1/../../../../arm-none-eabi/lib/thumb/v7e-m+fp/hard/libg.a(lib_a-lock.o)
__lock___tz_mutex   0x1               /opt/homebrew/Cellar/arm-gcc-bin@8/8-2019-q3-update_1/bin/../lib/gcc/arm-none-eabi/8.3.1/../../../../arm-none-eabi/lib/thumb/v7e-m+fp/hard/libg.a(lib_a-lock.o)
udd_ctrl_buffer     0x8               .build/obj_massdrop_ctrl_default/protocol/arm_atsam/usb/usb_device_udd.o
udi_hid_kbd_report_set
                    0x1               .build/obj_massdrop_ctrl_default/protocol/arm_atsam/usb/udi_hid_kbd.o
__lock___sfp_recursive_mutex
                    0x1               /opt/homebrew/Cellar/arm-gcc-bin@8/8-2019-q3-update_1/bin/../lib/gcc/arm-none-eabi/8.3.1/../../../../arm-none-eabi/lib/thumb/v7e-m+fp/hard/libg.a(lib_a-lock.o)
v_5v_avg            0x2               .build/obj_massdrop_ctrl_default/protocol/arm_atsam/adc.o

Discarded input sections

 .text          0x0000000000000000        0x0 /opt/homebrew/Cellar/arm-gcc-bin@8/8-2019-q3-update_1/bin/../lib/gcc/arm-none-eabi/8.3.1/thumb/v7e-m+fp/hard/crti.o
 .data          0x0000000000000000        0x0 /opt/homebrew/Cellar/arm-gcc-bin@8/8-2019-q3-update_1/bin/../lib/gcc/arm-none-eabi/8.3.1/thumb/v7e-m+fp/hard/crti.o
 .bss           0x0000000000000000        0x0 /opt/homebrew/Cellar/arm-gcc-bin@8/8-2019-q3-update_1/bin/../lib/gcc/arm-none-eabi/8.3.1/thumb/v7e-m+fp/hard/crti.o
 .data          0x0000000000000000        0x4 /opt/homebrew/Cellar/arm-gcc-bin@8/8-2019-q3-update_1/bin/../lib/gcc/arm-none-eabi/8.3.1/thumb/v7e-m+fp/hard/crtbegin.o
 .text          0x0000000000000000       0xe8 /opt/homebrew/Cellar/arm-gcc-bin@8/8-2019-q3-update_1/bin/../lib/gcc/arm-none-eabi/8.3.1/../../../../arm-none-eabi/lib/thumb/v7e-m+fp/hard/rdimon-crt0.o
 .data          0x0000000000000000      0x118 /opt/homebrew/Cellar/arm-gcc-bin@8/8-2019-q3-update_1/bin/../lib/gcc/arm-none-eabi/8.3.1/../../../../arm-none-eabi/lib/thumb/v7e-m+fp/hard/rdimon-crt0.o
 .bss           0x0000000000000000        0x0 /opt/homebrew/Cellar/arm-gcc-bin@8/8-2019-q3-update_1/bin/../lib/gcc/arm-none-eabi/8.3.1/../../../../arm-none-eabi/lib/thumb/v7e-m+fp/hard/rdimon-crt0.o
 .ARM.extab     0x0000000000000000        0x0 /opt/homebrew/Cellar/arm-gcc-bin@8/8-2019-q3-update_1/bin/../lib/gcc/arm-none-eabi/8.3.1/../../../../arm-none-eabi/lib/thumb/v7e-m+fp/hard/rdimon-crt0.o
 .ARM.exidx     0x0000000000000000        0x8 /opt/homebrew/Cellar/arm-gcc-bin@8/8-2019-q3-update_1/bin/../lib/gcc/arm-none-eabi/8.3.1/../../../../arm-none-eabi/lib/thumb/v7e-m+fp/hard/rdimon-crt0.o
 .ARM.attributes
                0x0000000000000000       0x1c /opt/homebrew/Cellar/arm-gcc-bin@8/8-2019-q3-update_1/bin/../lib/gcc/arm-none-eabi/8.3.1/../../../../arm-none-eabi/lib/thumb/v7e-m+fp/hard/rdimon-crt0.o
 .text          0x0000000000000000        0x0 .build/obj_massdrop_ctrl_default/config_led.o
 .bss           0x0000000000000000        0x0 .build/obj_massdrop_ctrl_default/config_led.o
 .text          0x0000000000000000        0x0 .build/obj_massdrop_ctrl_default/keyboards/massdrop/ctrl/ctrl.o
 .data          0x0000000000000000        0x0 .build/obj_massdrop_ctrl_default/keyboards/massdrop/ctrl/ctrl.o
 .bss           0x0000000000000000        0x0 .build/obj_massdrop_ctrl_default/keyboards/massdrop/ctrl/ctrl.o
 .text          0x0000000000000000        0x0 .build/obj_massdrop_ctrl_default/keyboards/massdrop/ctrl/keymaps/default/keymap.o
 .data          0x0000000000000000        0x0 .build/obj_massdrop_ctrl_default/keyboards/massdrop/ctrl/keymaps/default/keymap.o
 .text          0x0000000000000000        0x0 .build/obj_massdrop_ctrl_default/quantum/quantum.o
 .data          0x0000000000000000        0x4 .build/obj_massdrop_ctrl_default/quantum/quantum.o
 .bss           0x0000000000000000        0xc .build/obj_massdrop_ctrl_default/quantum/quantum.o
 .text.extract_mod_bits
                0x0000000000000000       0x5e .build/obj_massdrop_ctrl_default/quantum/quantum.o
 .text.register_code16
                0x0000000000000000       0x2a .build/obj_massdrop_ctrl_default/quantum/quantum.o
 .text.unregister_code16
                0x0000000000000000       0x2e .build/obj_massdrop_ctrl_default/quantum/quantum.o
 .text.tap_code16
                0x0000000000000000       0x12 .build/obj_massdrop_ctrl_default/quantum/quantum.o
 .text.process_record_user
                0x0000000000000000        0x4 .build/obj_massdrop_ctrl_default/quantum/quantum.o
 .text.set_single_persistent_default_layer
                0x0000000000000000       0x16 .build/obj_massdrop_ctrl_default/quantum/quantum.o
 .text.update_tri_layer_state
                0x0000000000000000       0x1e .build/obj_massdrop_ctrl_default/quantum/quantum.o
 .text.update_tri_layer
                0x0000000000000000       0x1c .build/obj_massdrop_ctrl_default/quantum/quantum.o
 .text.suspend_power_down_quantum
                0x0000000000000000       0x16 .build/obj_massdrop_ctrl_default/quantum/quantum.o
 .text.startup_user
                0x0000000000000000        0x2 .build/obj_massdrop_ctrl_default/quantum/quantum.o
 .text.suspend_wakeup_init_quantum
                0x0000000000000000       0x16 .build/obj_massdrop_ctrl_default/quantum/quantum.o
 .text.get_numeric_str
                0x0000000000000000       0x36 .build/obj_massdrop_ctrl_default/quantum/quantum.o
 .text.get_u8_str
                0x0000000000000000       0x34 .build/obj_massdrop_ctrl_default/quantum/quantum.o
 .text.get_u16_str
                0x0000000000000000       0x3c .build/obj_massdrop_ctrl_default/quantum/quantum.o
 .text          0x0000000000000000        0x0 .build/obj_massdrop_ctrl_default/quantum/send_string.o
 .data          0x0000000000000000        0x0 .build/obj_massdrop_ctrl_default/quantum/send_string.o
 .bss           0x0000000000000000        0x0 .build/obj_massdrop_ctrl_default/quantum/send_string.o
 .text.send_char
                0x0000000000000000       0x70 .build/obj_massdrop_ctrl_default/quantum/send_string.o
 .text.send_string_with_delay
                0x0000000000000000       0x9c .build/obj_massdrop_ctrl_default/quantum/send_string.o
 .text.send_string
                0x0000000000000000        0x6 .build/obj_massdrop_ctrl_default/quantum/send_string.o
 .text.send_string_P
                0x0000000000000000        0x4 .build/obj_massdrop_ctrl_default/quantum/send_string.o
 .text.send_string_with_delay_P
                0x0000000000000000        0x4 .build/obj_massdrop_ctrl_default/quantum/send_string.o
 .text.send_nibble
                0x0000000000000000       0x14 .build/obj_massdrop_ctrl_default/quantum/send_string.o
 .text.send_byte
                0x0000000000000000       0x16 .build/obj_massdrop_ctrl_default/quantum/send_string.o
 .text.send_word
                0x0000000000000000       0x14 .build/obj_massdrop_ctrl_default/quantum/send_string.o
 .text.send_dword
                0x0000000000000000       0x14 .build/obj_massdrop_ctrl_default/quantum/send_string.o
 .text.tap_random_base64
                0x0000000000000000       0x4c .build/obj_massdrop_ctrl_default/quantum/send_string.o
 .rodata        0x0000000000000000       0xb0 .build/obj_massdrop_ctrl_default/quantum/send_string.o
 .debug_info    0x0000000000000000     0x1b03 .build/obj_massdrop_ctrl_default/quantum/send_string.o
 .debug_abbrev  0x0000000000000000      0x3c5 .build/obj_massdrop_ctrl_default/quantum/send_string.o
 .debug_loc     0x0000000000000000      0x4b0 .build/obj_massdrop_ctrl_default/quantum/send_string.o
 .debug_aranges
                0x0000000000000000       0x58 .build/obj_massdrop_ctrl_default/quantum/send_string.o
 .debug_ranges  0x0000000000000000       0xa0 .build/obj_massdrop_ctrl_default/quantum/send_string.o
 .debug_line    0x0000000000000000      0x65c .build/obj_massdrop_ctrl_default/quantum/send_string.o
 .debug_str     0x0000000000000000     0x1337 .build/obj_massdrop_ctrl_default/quantum/send_string.o
 .comment       0x0000000000000000       0x77 .build/obj_massdrop_ctrl_default/quantum/send_string.o
 .debug_frame   0x0000000000000000      0x110 .build/obj_massdrop_ctrl_default/quantum/send_string.o
 .ARM.attributes
                0x0000000000000000       0x34 .build/obj_massdrop_ctrl_default/quantum/send_string.o
 .text          0x0000000000000000        0x0 .build/obj_massdrop_ctrl_default/quantum/bitwise.o
 .data          0x0000000000000000        0x0 .build/obj_massdrop_ctrl_default/quantum/bitwise.o
 .bss           0x0000000000000000        0x0 .build/obj_massdrop_ctrl_default/quantum/bitwise.o
 .text.bitpop   0x0000000000000000       0x12 .build/obj_massdrop_ctrl_default/quantum/bitwise.o
 .text.bitpop16
                0x0000000000000000       0x12 .build/obj_massdrop_ctrl_default/quantum/bitwise.o
 .text.bitpop32
                0x0000000000000000       0x12 .build/obj_massdrop_ctrl_default/quantum/bitwise.o
 .text.biton    0x0000000000000000       0x1e .build/obj_massdrop_ctrl_default/quantum/bitwise.o
 .text.biton16  0x0000000000000000       0x30 .build/obj_massdrop_ctrl_default/quantum/bitwise.o
 .text.biton32  0x0000000000000000       0x34 .build/obj_massdrop_ctrl_default/quantum/bitwise.o
 .text.bitrev   0x0000000000000000       0x26 .build/obj_massdrop_ctrl_default/quantum/bitwise.o
 .text.bitrev16
                0x0000000000000000       0x1a .build/obj_massdrop_ctrl_default/quantum/bitwise.o
 .text.bitrev32
                0x0000000000000000       0x18 .build/obj_massdrop_ctrl_default/quantum/bitwise.o
 .debug_info    0x0000000000000000      0x346 .build/obj_massdrop_ctrl_default/quantum/bitwise.o
 .debug_abbrev  0x0000000000000000       0xec .build/obj_massdrop_ctrl_default/quantum/bitwise.o
 .debug_loc     0x0000000000000000     0x1137 .build/obj_massdrop_ctrl_default/quantum/bitwise.o
 .debug_aranges
                0x0000000000000000       0x60 .build/obj_massdrop_ctrl_default/quantum/bitwise.o
 .debug_ranges  0x0000000000000000       0x50 .build/obj_massdrop_ctrl_default/quantum/bitwise.o
 .debug_line    0x0000000000000000      0x3fb .build/obj_massdrop_ctrl_default/quantum/bitwise.o
 .debug_str     0x0000000000000000      0x28b .build/obj_massdrop_ctrl_default/quantum/bitwise.o
 .comment       0x0000000000000000       0x77 .build/obj_massdrop_ctrl_default/quantum/bitwise.o
 .debug_frame   0x0000000000000000       0xb4 .build/obj_massdrop_ctrl_default/quantum/bitwise.o
 .ARM.attributes
                0x0000000000000000       0x34 .build/obj_massdrop_ctrl_default/quantum/bitwise.o
 .text          0x0000000000000000        0x0 .build/obj_massdrop_ctrl_default/quantum/led.o
 .data          0x0000000000000000        0x0 .build/obj_massdrop_ctrl_default/quantum/led.o
 .bss           0x0000000000000000        0x0 .build/obj_massdrop_ctrl_default/quantum/led.o
 .text          0x0000000000000000        0x0 .build/obj_massdrop_ctrl_default/quantum/action.o
 .data          0x0000000000000000        0x0 .build/obj_massdrop_ctrl_default/quantum/action.o
 .text.process_record_quantum
                0x0000000000000000        0x4 .build/obj_massdrop_ctrl_default/quantum/action.o
 .text.pre_process_record_quantum
                0x0000000000000000        0x4 .build/obj_massdrop_ctrl_default/quantum/action.o
 .text.post_process_record_quantum
                0x0000000000000000        0x2 .build/obj_massdrop_ctrl_default/quantum/action.o
 .text.process_record_nocache
                0x0000000000000000       0x18 .build/obj_massdrop_ctrl_default/quantum/action.o
 .text.register_weak_mods
                0x0000000000000000       0x12 .build/obj_massdrop_ctrl_default/quantum/action.o
 .text.unregister_weak_mods
                0x0000000000000000       0x12 .build/obj_massdrop_ctrl_default/quantum/action.o
 .text.is_tap_key
                0x0000000000000000       0x16 .build/obj_massdrop_ctrl_default/quantum/action.o
 .text.debug_action
                0x0000000000000000        0x2 .build/obj_massdrop_ctrl_default/quantum/action.o
 COMMON         0x0000000000000000        0x4 .build/obj_massdrop_ctrl_default/quantum/action.o
 .text          0x0000000000000000        0x0 .build/obj_massdrop_ctrl_default/quantum/action_layer.o
 .data          0x0000000000000000        0x0 .build/obj_massdrop_ctrl_default/quantum/action_layer.o
 .text.layer_state_cmp
                0x0000000000000000       0x12 .build/obj_massdrop_ctrl_default/quantum/action_layer.o
 .text.layer_state_is
                0x0000000000000000       0x10 .build/obj_massdrop_ctrl_default/quantum/action_layer.o
 .text          0x0000000000000000        0x0 .build/obj_massdrop_ctrl_default/quantum/action_macro.o
 .data          0x0000000000000000        0x0 .build/obj_massdrop_ctrl_default/quantum/action_macro.o
 .bss           0x0000000000000000        0x0 .build/obj_massdrop_ctrl_default/quantum/action_macro.o
 .text          0x0000000000000000        0x0 .build/obj_massdrop_ctrl_default/quantum/action_tapping.o
 .text.get_tapping_term
                0x0000000000000000        0xc .build/obj_massdrop_ctrl_default/quantum/action_tapping.o
 .text          0x0000000000000000        0x0 .build/obj_massdrop_ctrl_default/quantum/action_util.o
 .text.get_oneshot_locked_mods
                0x0000000000000000        0xc .build/obj_massdrop_ctrl_default/quantum/action_util.o
 .text.has_oneshot_mods_timed_out
                0x0000000000000000        0x4 .build/obj_massdrop_ctrl_default/quantum/action_util.o
 .text.is_oneshot_enabled
                0x0000000000000000       0x10 .build/obj_massdrop_ctrl_default/quantum/action_util.o
 .text.set_mods
                0x0000000000000000        0xc .build/obj_massdrop_ctrl_default/quantum/action_util.o
 .text.get_weak_mods
                0x0000000000000000        0xc .build/obj_massdrop_ctrl_default/quantum/action_util.o
 .text.set_weak_mods
                0x0000000000000000        0xc .build/obj_massdrop_ctrl_default/quantum/action_util.o
 .text.get_macro_mods
                0x0000000000000000        0xc .build/obj_massdrop_ctrl_default/quantum/action_util.o
 .text.set_macro_mods
                0x0000000000000000        0xc .build/obj_massdrop_ctrl_default/quantum/action_util.o
 .text.oneshot_locked_mods_changed_user
                0x0000000000000000        0x2 .build/obj_massdrop_ctrl_default/quantum/action_util.o
 .text.oneshot_locked_mods_changed_kb
                0x0000000000000000        0x8 .build/obj_massdrop_ctrl_default/quantum/action_util.o
 .text.set_oneshot_locked_mods
                0x0000000000000000       0x18 .build/obj_massdrop_ctrl_default/quantum/action_util.o
 .text.clear_oneshot_locked_mods
                0x0000000000000000       0x18 .build/obj_massdrop_ctrl_default/quantum/action_util.o
 .text.add_oneshot_mods
                0x0000000000000000       0x1c .build/obj_massdrop_ctrl_default/quantum/action_util.o
 .text.del_oneshot_mods
                0x0000000000000000       0x1c .build/obj_massdrop_ctrl_default/quantum/action_util.o
 .text.has_anymod
                0x0000000000000000        0xc .build/obj_massdrop_ctrl_default/quantum/action_util.o
 .text          0x0000000000000000        0x0 .build/obj_massdrop_ctrl_default/quantum/eeconfig.o
 .data          0x0000000000000000        0x0 .build/obj_massdrop_ctrl_default/quantum/eeconfig.o
 .bss           0x0000000000000000        0x0 .build/obj_massdrop_ctrl_default/quantum/eeconfig.o
 .text.eeconfig_enable
                0x0000000000000000        0xa .build/obj_massdrop_ctrl_default/quantum/eeconfig.o
 .text.eeconfig_disable
                0x0000000000000000        0xa .build/obj_massdrop_ctrl_default/quantum/eeconfig.o
 .text.eeconfig_is_disabled
                0x0000000000000000       0x14 .build/obj_massdrop_ctrl_default/quantum/eeconfig.o
 .text.eeconfig_update_debug
                0x0000000000000000        0x8 .build/obj_massdrop_ctrl_default/quantum/eeconfig.o
 .text.eeconfig_update_default_layer
                0x0000000000000000        0x8 .build/obj_massdrop_ctrl_default/quantum/eeconfig.o
 .text.eeconfig_read_audio
                0x0000000000000000        0x6 .build/obj_massdrop_ctrl_default/quantum/eeconfig.o
 .text.eeconfig_update_audio
                0x0000000000000000        0x8 .build/obj_massdrop_ctrl_default/quantum/eeconfig.o
 .text.eeconfig_read_kb
                0x0000000000000000        0x6 .build/obj_massdrop_ctrl_default/quantum/eeconfig.o
 .text.eeconfig_read_user
                0x0000000000000000        0x6 .build/obj_massdrop_ctrl_default/quantum/eeconfig.o
 .text.eeconfig_read_haptic
                0x0000000000000000        0x6 .build/obj_massdrop_ctrl_default/quantum/eeconfig.o
 .text.eeconfig_update_haptic
                0x0000000000000000        0x8 .build/obj_massdrop_ctrl_default/quantum/eeconfig.o
 .text.eeconfig_read_handedness
                0x0000000000000000       0x10 .build/obj_massdrop_ctrl_default/quantum/eeconfig.o
 .text          0x0000000000000000        0x0 .build/obj_massdrop_ctrl_default/quantum/keyboard.o
 .data          0x0000000000000000        0x0 .build/obj_massdrop_ctrl_default/quantum/keyboard.o
 .text.last_input_activity_time
                0x0000000000000000        0xc .build/obj_massdrop_ctrl_default/quantum/keyboard.o
 .text.last_input_activity_elapsed
                0x0000000000000000        0xc .build/obj_massdrop_ctrl_default/quantum/keyboard.o
 .text.last_matrix_activity_time
                0x0000000000000000        0xc .build/obj_massdrop_ctrl_default/quantum/keyboard.o
 .text.last_matrix_activity_elapsed
                0x0000000000000000        0xc .build/obj_massdrop_ctrl_default/quantum/keyboard.o
 .text.last_encoder_activity_time
                0x0000000000000000        0xc .build/obj_massdrop_ctrl_default/quantum/keyboard.o
 .text.last_encoder_activity_elapsed
                0x0000000000000000        0xc .build/obj_massdrop_ctrl_default/quantum/keyboard.o
 .text.last_encoder_activity_trigger
                0x0000000000000000       0x14 .build/obj_massdrop_ctrl_default/quantum/keyboard.o
 .text.disable_jtag
                0x0000000000000000        0x2 .build/obj_massdrop_ctrl_default/quantum/keyboard.o
 .text.is_keyboard_left
                0x0000000000000000        0x4 .build/obj_massdrop_ctrl_default/quantum/keyboard.o
 .text.switch_events
                0x0000000000000000        0x4 .build/obj_massdrop_ctrl_default/quantum/keyboard.o
 .text.keyboard_set_leds
                0x0000000000000000        0x4 .build/obj_massdrop_ctrl_default/quantum/keyboard.o
 .text          0x0000000000000000        0x0 .build/obj_massdrop_ctrl_default/quantum/keymap_common.o
 .data          0x0000000000000000        0x0 .build/obj_massdrop_ctrl_default/quantum/keymap_common.o
 .bss           0x0000000000000000        0x0 .build/obj_massdrop_ctrl_default/quantum/keymap_common.o
 .text          0x0000000000000000        0x0 .build/obj_massdrop_ctrl_default/quantum/keycode_config.o
 .data          0x0000000000000000        0x0 .build/obj_massdrop_ctrl_default/quantum/keycode_config.o
 .bss           0x0000000000000000        0x0 .build/obj_massdrop_ctrl_default/quantum/keycode_config.o
 .text          0x0000000000000000        0x0 .build/obj_massdrop_ctrl_default/quantum/sync_timer.o
 .data          0x0000000000000000        0x0 .build/obj_massdrop_ctrl_default/quantum/sync_timer.o
 .bss           0x0000000000000000        0x0 .build/obj_massdrop_ctrl_default/quantum/sync_timer.o
 .debug_info    0x0000000000000000       0xca .build/obj_massdrop_ctrl_default/quantum/sync_timer.o
 .debug_abbrev  0x0000000000000000       0x62 .build/obj_massdrop_ctrl_default/quantum/sync_timer.o
 .debug_aranges
                0x0000000000000000       0x18 .build/obj_massdrop_ctrl_default/quantum/sync_timer.o
 .debug_line    0x0000000000000000      0x17e .build/obj_massdrop_ctrl_default/quantum/sync_timer.o
 .debug_str     0x0000000000000000      0x22d .build/obj_massdrop_ctrl_default/quantum/sync_timer.o
 .comment       0x0000000000000000       0x77 .build/obj_massdrop_ctrl_default/quantum/sync_timer.o
 .ARM.attributes
                0x0000000000000000       0x39 .build/obj_massdrop_ctrl_default/quantum/sync_timer.o
 .text          0x0000000000000000        0x0 .build/obj_massdrop_ctrl_default/quantum/logging/debug.o
 .data          0x0000000000000000        0x0 .build/obj_massdrop_ctrl_default/quantum/logging/debug.o
 .text          0x0000000000000000        0x0 .build/obj_massdrop_ctrl_default/quantum/logging/sendchar.o
 .data          0x0000000000000000        0x0 .build/obj_massdrop_ctrl_default/quantum/logging/sendchar.o
 .bss           0x0000000000000000        0x0 .build/obj_massdrop_ctrl_default/quantum/logging/sendchar.o
 .text          0x0000000000000000        0x0 .build/obj_massdrop_ctrl_default/quantum/logging/print.o
 .bss           0x0000000000000000        0x0 .build/obj_massdrop_ctrl_default/quantum/logging/print.o
 .text._putchar
                0x0000000000000000        0xc .build/obj_massdrop_ctrl_default/quantum/logging/print.o
 .text          0x0000000000000000        0x0 .build/obj_massdrop_ctrl_default/quantum/bootmagic/magic.o
 .data          0x0000000000000000        0x0 .build/obj_massdrop_ctrl_default/quantum/bootmagic/magic.o
 .bss           0x0000000000000000        0x0 .build/obj_massdrop_ctrl_default/quantum/bootmagic/magic.o
 .text          0x0000000000000000        0x0 .build/obj_massdrop_ctrl_default/quantum/matrix_common.o
 .data          0x0000000000000000        0x0 .build/obj_massdrop_ctrl_default/quantum/matrix_common.o
 .bss           0x0000000000000000        0x0 .build/obj_massdrop_ctrl_default/quantum/matrix_common.o
 .text.matrix_rows
                0x0000000000000000        0x4 .build/obj_massdrop_ctrl_default/quantum/matrix_common.o
 .text.matrix_cols
                0x0000000000000000        0x4 .build/obj_massdrop_ctrl_default/quantum/matrix_common.o
 .text.matrix_is_on
                0x0000000000000000       0x18 .build/obj_massdrop_ctrl_default/quantum/matrix_common.o
 .text.matrix_is_modified
                0x0000000000000000        0xe .build/obj_massdrop_ctrl_default/quantum/matrix_common.o
 .text.matrix_key_count
                0x0000000000000000       0x24 .build/obj_massdrop_ctrl_default/quantum/matrix_common.o
 .text.matrix_output_select_delay
                0x0000000000000000        0x2 .build/obj_massdrop_ctrl_default/quantum/matrix_common.o
 .text.matrix_output_unselect_delay
                0x0000000000000000        0x8 .build/obj_massdrop_ctrl_default/quantum/matrix_common.o
 .text.matrix_init_custom
                0x0000000000000000        0x2 .build/obj_massdrop_ctrl_default/quantum/matrix_common.o
 .text.matrix_scan_custom
                0x0000000000000000        0x4 .build/obj_massdrop_ctrl_default/quantum/matrix_common.o
 .text.matrix_init
                0x0000000000000000       0x34 .build/obj_massdrop_ctrl_default/quantum/matrix_common.o
 .text.matrix_scan
                0x0000000000000000       0x28 .build/obj_massdrop_ctrl_default/quantum/matrix_common.o
 .text.peek_matrix
                0x0000000000000000       0x1c .build/obj_massdrop_ctrl_default/quantum/matrix_common.o
 .text          0x0000000000000000        0x0 .build/obj_massdrop_ctrl_default/quantum/matrix.o
 .data          0x0000000000000000        0x0 .build/obj_massdrop_ctrl_default/quantum/matrix.o
 .bss           0x0000000000000000        0x0 .build/obj_massdrop_ctrl_default/quantum/matrix.o
 .text          0x0000000000000000        0x0 .build/obj_massdrop_ctrl_default/quantum/debounce/sym_defer_g.o
 .data          0x0000000000000000        0x0 .build/obj_massdrop_ctrl_default/quantum/debounce/sym_defer_g.o
 .text.debounce_active
                0x0000000000000000        0xc .build/obj_massdrop_ctrl_default/quantum/debounce/sym_defer_g.o
 .text.debounce_free
                0x0000000000000000        0x2 .build/obj_massdrop_ctrl_default/quantum/debounce/sym_defer_g.o
 .text          0x0000000000000000        0x0 .build/obj_massdrop_ctrl_default/quantum/main.o
 .data          0x0000000000000000        0x0 .build/obj_massdrop_ctrl_default/quantum/main.o
 .bss           0x0000000000000000        0x0 .build/obj_massdrop_ctrl_default/quantum/main.o
 .text.protocol_init
                0x0000000000000000       0x12 .build/obj_massdrop_ctrl_default/quantum/main.o
 .text.protocol_task
                0x0000000000000000       0x12 .build/obj_massdrop_ctrl_default/quantum/main.o
 .text.startup.main
                0x0000000000000000       0x1c .build/obj_massdrop_ctrl_default/quantum/main.o
 .debug_info    0x0000000000000000      0x1ee .build/obj_massdrop_ctrl_default/quantum/main.o
 .debug_abbrev  0x0000000000000000       0xcc .build/obj_massdrop_ctrl_default/quantum/main.o
 .debug_aranges
                0x0000000000000000       0x30 .build/obj_massdrop_ctrl_default/quantum/main.o
 .debug_ranges  0x0000000000000000       0x20 .build/obj_massdrop_ctrl_default/quantum/main.o
 .debug_line    0x0000000000000000      0x203 .build/obj_massdrop_ctrl_default/quantum/main.o
 .debug_str     0x0000000000000000      0x2e1 .build/obj_massdrop_ctrl_default/quantum/main.o
 .comment       0x0000000000000000       0x77 .build/obj_massdrop_ctrl_default/quantum/main.o
 .debug_frame   0x0000000000000000       0x60 .build/obj_massdrop_ctrl_default/quantum/main.o
 .ARM.attributes
                0x0000000000000000       0x34 .build/obj_massdrop_ctrl_default/quantum/main.o
 .text          0x0000000000000000        0x0 .build/obj_massdrop_ctrl_default/lib/printf/printf.o
 .data          0x0000000000000000        0x0 .build/obj_massdrop_ctrl_default/lib/printf/printf.o
 .bss           0x0000000000000000        0x0 .build/obj_massdrop_ctrl_default/lib/printf/printf.o
 .text._out_buffer
                0x0000000000000000        0x8 .build/obj_massdrop_ctrl_default/lib/printf/printf.o
 .text._out_null
                0x0000000000000000        0x2 .build/obj_massdrop_ctrl_default/lib/printf/printf.o
 .text._ntoa_long
                0x0000000000000000      0x1c0 .build/obj_massdrop_ctrl_default/lib/printf/printf.o
 .text._out_char
                0x0000000000000000        0x8 .build/obj_massdrop_ctrl_default/lib/printf/printf.o
 .text._out_fct
                0x0000000000000000        0xa .build/obj_massdrop_ctrl_default/lib/printf/printf.o
 .text._vsnprintf
                0x0000000000000000      0x3ac .build/obj_massdrop_ctrl_default/lib/printf/printf.o
 .text.printf_  0x0000000000000000       0x28 .build/obj_massdrop_ctrl_default/lib/printf/printf.o
 .text.sprintf_
                0x0000000000000000       0x28 .build/obj_massdrop_ctrl_default/lib/printf/printf.o
 .text.snprintf_
                0x0000000000000000       0x28 .build/obj_massdrop_ctrl_default/lib/printf/printf.o
 .text.vprintf_
                0x0000000000000000       0x1c .build/obj_massdrop_ctrl_default/lib/printf/printf.o
 .text.vsnprintf_
                0x0000000000000000       0x1c .build/obj_massdrop_ctrl_default/lib/printf/printf.o
 .text.fctprintf
                0x0000000000000000       0x2c .build/obj_massdrop_ctrl_default/lib/printf/printf.o
 .debug_info    0x0000000000000000     0x1005 .build/obj_massdrop_ctrl_default/lib/printf/printf.o
 .debug_abbrev  0x0000000000000000      0x375 .build/obj_massdrop_ctrl_default/lib/printf/printf.o
 .debug_loc     0x0000000000000000     0x1575 .build/obj_massdrop_ctrl_default/lib/printf/printf.o
 .debug_aranges
                0x0000000000000000       0x78 .build/obj_massdrop_ctrl_default/lib/printf/printf.o
 .debug_ranges  0x0000000000000000      0x198 .build/obj_massdrop_ctrl_default/lib/printf/printf.o
 .debug_line    0x0000000000000000      0xa52 .build/obj_massdrop_ctrl_default/lib/printf/printf.o
 .debug_str     0x0000000000000000      0x3b2 .build/obj_massdrop_ctrl_default/lib/printf/printf.o
 .comment       0x0000000000000000       0x77 .build/obj_massdrop_ctrl_default/lib/printf/printf.o
 .debug_frame   0x0000000000000000      0x18c .build/obj_massdrop_ctrl_default/lib/printf/printf.o
 .ARM.attributes
                0x0000000000000000       0x34 .build/obj_massdrop_ctrl_default/lib/printf/printf.o
 .text          0x0000000000000000        0x0 .build/obj_massdrop_ctrl_default/platforms/arm_atsam/eeprom.o
 .text.eeprom_read_dword
                0x0000000000000000       0x2c .build/obj_massdrop_ctrl_default/platforms/arm_atsam/eeprom.o
 .text          0x0000000000000000        0x0 .build/obj_massdrop_ctrl_default/quantum/color.o
 .data          0x0000000000000000        0x0 .build/obj_massdrop_ctrl_default/quantum/color.o
 .bss           0x0000000000000000        0x0 .build/obj_massdrop_ctrl_default/quantum/color.o
 .text.hsv_to_rgb_nocie
                0x0000000000000000        0xa .build/obj_massdrop_ctrl_default/quantum/color.o
 .text          0x0000000000000000        0x0 .build/obj_massdrop_ctrl_default/quantum/rgb_matrix/rgb_matrix.o
 .text.eeconfig_update_rgb_matrix
                0x0000000000000000        0x4 .build/obj_massdrop_ctrl_default/quantum/rgb_matrix/rgb_matrix.o
 .text.eeconfig_debug_rgb_matrix
                0x0000000000000000        0x2 .build/obj_massdrop_ctrl_default/quantum/rgb_matrix/rgb_matrix.o
 .text.rgb_matrix_test
                0x0000000000000000       0x38 .build/obj_massdrop_ctrl_default/quantum/rgb_matrix/rgb_matrix.o
 .text.rgb_matrix_indicators_advanced_kb
                0x0000000000000000        0x2 .build/obj_massdrop_ctrl_default/quantum/rgb_matrix/rgb_matrix.o
 .text.rgb_matrix_set_suspend_state
                0x0000000000000000        0x2 .build/obj_massdrop_ctrl_default/quantum/rgb_matrix/rgb_matrix.o
 .text.rgb_matrix_get_suspend_state
                0x0000000000000000        0x4 .build/obj_massdrop_ctrl_default/quantum/rgb_matrix/rgb_matrix.o
 .text.rgb_matrix_toggle_noeeprom
                0x0000000000000000        0x6 .build/obj_massdrop_ctrl_default/quantum/rgb_matrix/rgb_matrix.o
 .text.rgb_matrix_enable
                0x0000000000000000       0x18 .build/obj_massdrop_ctrl_default/quantum/rgb_matrix/rgb_matrix.o
 .text.rgb_matrix_disable
                0x0000000000000000       0x18 .build/obj_massdrop_ctrl_default/quantum/rgb_matrix/rgb_matrix.o
 .text.rgb_matrix_is_enabled
                0x0000000000000000       0x10 .build/obj_massdrop_ctrl_default/quantum/rgb_matrix/rgb_matrix.o
 .text.rgb_matrix_mode_noeeprom
                0x0000000000000000        0x6 .build/obj_massdrop_ctrl_default/quantum/rgb_matrix/rgb_matrix.o
 .text.rgb_matrix_get_mode
                0x0000000000000000        0xc .build/obj_massdrop_ctrl_default/quantum/rgb_matrix/rgb_matrix.o
 .text.rgb_matrix_step_noeeprom
                0x0000000000000000        0x6 .build/obj_massdrop_ctrl_default/quantum/rgb_matrix/rgb_matrix.o
 .text.rgb_matrix_step_reverse_noeeprom
                0x0000000000000000        0x6 .build/obj_massdrop_ctrl_default/quantum/rgb_matrix/rgb_matrix.o
 .text.rgb_matrix_sethsv_noeeprom
                0x0000000000000000        0x6 .build/obj_massdrop_ctrl_default/quantum/rgb_matrix/rgb_matrix.o
 .text.rgb_matrix_sethsv
                0x0000000000000000        0x6 .build/obj_massdrop_ctrl_default/quantum/rgb_matrix/rgb_matrix.o
 .text.rgb_matrix_get_hsv
                0x0000000000000000       0x2c .build/obj_massdrop_ctrl_default/quantum/rgb_matrix/rgb_matrix.o
 .text.rgb_matrix_get_hue
                0x0000000000000000        0xc .build/obj_massdrop_ctrl_default/quantum/rgb_matrix/rgb_matrix.o
 .text.rgb_matrix_get_sat
                0x0000000000000000        0xc .build/obj_massdrop_ctrl_default/quantum/rgb_matrix/rgb_matrix.o
 .text.rgb_matrix_get_val
                0x0000000000000000        0xc .build/obj_massdrop_ctrl_default/quantum/rgb_matrix/rgb_matrix.o
 .text.rgb_matrix_increase_hue_noeeprom
                0x0000000000000000        0x6 .build/obj_massdrop_ctrl_default/quantum/rgb_matrix/rgb_matrix.o
 .text.rgb_matrix_decrease_hue_noeeprom
                0x0000000000000000        0x6 .build/obj_massdrop_ctrl_default/quantum/rgb_matrix/rgb_matrix.o
 .text.rgb_matrix_increase_sat_noeeprom
                0x0000000000000000        0x6 .build/obj_massdrop_ctrl_default/quantum/rgb_matrix/rgb_matrix.o
 .text.rgb_matrix_decrease_sat_noeeprom
                0x0000000000000000        0x6 .build/obj_massdrop_ctrl_default/quantum/rgb_matrix/rgb_matrix.o
 .text.rgb_matrix_increase_val_noeeprom
                0x0000000000000000        0x6 .build/obj_massdrop_ctrl_default/quantum/rgb_matrix/rgb_matrix.o
 .text.rgb_matrix_decrease_val_noeeprom
                0x0000000000000000        0x6 .build/obj_massdrop_ctrl_default/quantum/rgb_matrix/rgb_matrix.o
 .text.rgb_matrix_set_speed_noeeprom
                0x0000000000000000        0x6 .build/obj_massdrop_ctrl_default/quantum/rgb_matrix/rgb_matrix.o
 .text.rgb_matrix_set_speed
                0x0000000000000000        0x6 .build/obj_massdrop_ctrl_default/quantum/rgb_matrix/rgb_matrix.o
 .text.rgb_matrix_get_speed
                0x0000000000000000        0xc .build/obj_massdrop_ctrl_default/quantum/rgb_matrix/rgb_matrix.o
 .text.rgb_matrix_increase_speed_noeeprom
                0x0000000000000000        0x6 .build/obj_massdrop_ctrl_default/quantum/rgb_matrix/rgb_matrix.o
 .text.rgb_matrix_decrease_speed_noeeprom
                0x0000000000000000        0x6 .build/obj_massdrop_ctrl_default/quantum/rgb_matrix/rgb_matrix.o
 .text          0x0000000000000000        0x0 .build/obj_massdrop_ctrl_default/quantum/rgb_matrix/rgb_matrix_drivers.o
 .data          0x0000000000000000        0x0 .build/obj_massdrop_ctrl_default/quantum/rgb_matrix/rgb_matrix_drivers.o
 .bss           0x0000000000000000        0x0 .build/obj_massdrop_ctrl_default/quantum/rgb_matrix/rgb_matrix_drivers.o
 .debug_info    0x0000000000000000     0x11ca .build/obj_massdrop_ctrl_default/quantum/rgb_matrix/rgb_matrix_drivers.o
 .debug_abbrev  0x0000000000000000      0x239 .build/obj_massdrop_ctrl_default/quantum/rgb_matrix/rgb_matrix_drivers.o
 .debug_aranges
                0x0000000000000000       0x18 .build/obj_massdrop_ctrl_default/quantum/rgb_matrix/rgb_matrix_drivers.o
 .debug_line    0x0000000000000000      0x393 .build/obj_massdrop_ctrl_default/quantum/rgb_matrix/rgb_matrix_drivers.o
 .debug_str     0x0000000000000000      0xb75 .build/obj_massdrop_ctrl_default/quantum/rgb_matrix/rgb_matrix_drivers.o
 .comment       0x0000000000000000       0x77 .build/obj_massdrop_ctrl_default/quantum/rgb_matrix/rgb_matrix_drivers.o
 .ARM.attributes
                0x0000000000000000       0x39 .build/obj_massdrop_ctrl_default/quantum/rgb_matrix/rgb_matrix_drivers.o
 .text          0x0000000000000000        0x0 .build/obj_massdrop_ctrl_default/lib/lib8tion/lib8tion.o
 .bss           0x0000000000000000        0x0 .build/obj_massdrop_ctrl_default/lib/lib8tion/lib8tion.o
 .text          0x0000000000000000        0x0 .build/obj_massdrop_ctrl_default/quantum/process_keycode/process_rgb.o
 .data          0x0000000000000000        0x0 .build/obj_massdrop_ctrl_default/quantum/process_keycode/process_rgb.o
 .bss           0x0000000000000000        0x0 .build/obj_massdrop_ctrl_default/quantum/process_keycode/process_rgb.o
 .text          0x0000000000000000        0x0 .build/obj_massdrop_ctrl_default/quantum/led_tables.o
 .data          0x0000000000000000        0x0 .build/obj_massdrop_ctrl_default/quantum/led_tables.o
 .bss           0x0000000000000000        0x0 .build/obj_massdrop_ctrl_default/quantum/led_tables.o
 .text          0x0000000000000000        0x0 .build/obj_massdrop_ctrl_default/quantum/process_keycode/process_magic.o
 .data          0x0000000000000000        0x0 .build/obj_massdrop_ctrl_default/quantum/process_keycode/process_magic.o
 .bss           0x0000000000000000        0x0 .build/obj_massdrop_ctrl_default/quantum/process_keycode/process_magic.o
 .text          0x0000000000000000        0x0 .build/obj_massdrop_ctrl_default/quantum/process_keycode/process_grave_esc.o
 .data          0x0000000000000000        0x0 .build/obj_massdrop_ctrl_default/quantum/process_keycode/process_grave_esc.o
 .text          0x0000000000000000        0x0 .build/obj_massdrop_ctrl_default/quantum/process_keycode/process_space_cadet.o
 .data          0x0000000000000000        0x0 .build/obj_massdrop_ctrl_default/quantum/process_keycode/process_space_cadet.o
 .text          0x0000000000000000        0x0 .build/obj_massdrop_ctrl_default/protocol/host.o
 .data          0x0000000000000000        0x0 .build/obj_massdrop_ctrl_default/protocol/host.o
 .text.host_get_driver
                0x0000000000000000        0xc .build/obj_massdrop_ctrl_default/protocol/host.o
 .text.host_keyboard_led_state
                0x0000000000000000        0x8 .build/obj_massdrop_ctrl_default/protocol/host.o
 .text.host_mouse_send
                0x0000000000000000       0x10 .build/obj_massdrop_ctrl_default/protocol/host.o
 .text.send_digitizer
                0x0000000000000000        0x2 .build/obj_massdrop_ctrl_default/protocol/host.o
 .text.host_digitizer_send
                0x0000000000000000       0x58 .build/obj_massdrop_ctrl_default/protocol/host.o
 .text.host_programmable_button_send
                0x0000000000000000       0x18 .build/obj_massdrop_ctrl_default/protocol/host.o
 .text.host_last_system_report
                0x0000000000000000        0xc .build/obj_massdrop_ctrl_default/protocol/host.o
 .text.host_last_consumer_report
                0x0000000000000000        0xc .build/obj_massdrop_ctrl_default/protocol/host.o
 .text.host_last_programmable_button_report
                0x0000000000000000        0xc .build/obj_massdrop_ctrl_default/protocol/host.o
 .text          0x0000000000000000        0x0 .build/obj_massdrop_ctrl_default/protocol/report.o
 .data          0x0000000000000000        0x0 .build/obj_massdrop_ctrl_default/protocol/report.o
 .bss           0x0000000000000000        0x0 .build/obj_massdrop_ctrl_default/protocol/report.o
 .text.get_first_key
                0x0000000000000000       0x44 .build/obj_massdrop_ctrl_default/protocol/report.o
 .text          0x0000000000000000        0x0 .build/obj_massdrop_ctrl_default/protocol/usb_device_state.o
 .data          0x0000000000000000        0x0 .build/obj_massdrop_ctrl_default/protocol/usb_device_state.o
 .bss           0x0000000000000000        0x1 .build/obj_massdrop_ctrl_default/protocol/usb_device_state.o
 .text.notify_usb_device_state_change_user
                0x0000000000000000        0x2 .build/obj_massdrop_ctrl_default/protocol/usb_device_state.o
 .text.notify_usb_device_state_change_kb
                0x0000000000000000        0x8 .build/obj_massdrop_ctrl_default/protocol/usb_device_state.o
 .text.usb_device_state_set_configuration
                0x0000000000000000       0x18 .build/obj_massdrop_ctrl_default/protocol/usb_device_state.o
 .text.usb_device_state_set_suspend
                0x0000000000000000       0x14 .build/obj_massdrop_ctrl_default/protocol/usb_device_state.o
 .text.usb_device_state_set_resume
                0x0000000000000000        0x4 .build/obj_massdrop_ctrl_default/protocol/usb_device_state.o
 .text.usb_device_state_set_reset
                0x0000000000000000       0x14 .build/obj_massdrop_ctrl_default/protocol/usb_device_state.o
 .text.usb_device_state_init
                0x0000000000000000        0x4 .build/obj_massdrop_ctrl_default/protocol/usb_device_state.o
 .debug_info    0x0000000000000000      0x2df .build/obj_massdrop_ctrl_default/protocol/usb_device_state.o
 .debug_abbrev  0x0000000000000000      0x178 .build/obj_massdrop_ctrl_default/protocol/usb_device_state.o
 .debug_loc     0x0000000000000000       0xfa .build/obj_massdrop_ctrl_default/protocol/usb_device_state.o
 .debug_aranges
                0x0000000000000000       0x40 .build/obj_massdrop_ctrl_default/protocol/usb_device_state.o
 .debug_ranges  0x0000000000000000       0x30 .build/obj_massdrop_ctrl_default/protocol/usb_device_state.o
 .debug_line    0x0000000000000000      0x270 .build/obj_massdrop_ctrl_default/protocol/usb_device_state.o
 .debug_str     0x0000000000000000      0x3cb .build/obj_massdrop_ctrl_default/protocol/usb_device_state.o
 .comment       0x0000000000000000       0x77 .build/obj_massdrop_ctrl_default/protocol/usb_device_state.o
 .debug_frame   0x0000000000000000       0xa0 .build/obj_massdrop_ctrl_default/protocol/usb_device_state.o
 .ARM.attributes
                0x0000000000000000       0x34 .build/obj_massdrop_ctrl_default/protocol/usb_device_state.o
 .text          0x0000000000000000        0x0 .build/obj_massdrop_ctrl_default/protocol/usb_util.o
 .data          0x0000000000000000        0x0 .build/obj_massdrop_ctrl_default/protocol/usb_util.o
 .bss           0x0000000000000000        0x0 .build/obj_massdrop_ctrl_default/protocol/usb_util.o
 .text.usb_disconnect
                0x0000000000000000        0x2 .build/obj_massdrop_ctrl_default/protocol/usb_util.o
 .text.usb_connected_state
                0x0000000000000000        0x4 .build/obj_massdrop_ctrl_default/protocol/usb_util.o
 .text.usb_vbus_state
                0x0000000000000000        0x4 .build/obj_massdrop_ctrl_default/protocol/usb_util.o
 .debug_info    0x0000000000000000     0x120c .build/obj_massdrop_ctrl_default/protocol/usb_util.o
 .debug_abbrev  0x0000000000000000      0x28f .build/obj_massdrop_ctrl_default/protocol/usb_util.o
 .debug_aranges
                0x0000000000000000       0x28 .build/obj_massdrop_ctrl_default/protocol/usb_util.o
 .debug_ranges  0x0000000000000000       0x18 .build/obj_massdrop_ctrl_default/protocol/usb_util.o
 .debug_line    0x0000000000000000      0x3d1 .build/obj_massdrop_ctrl_default/protocol/usb_util.o
 .debug_str     0x0000000000000000      0xb9c .build/obj_massdrop_ctrl_default/protocol/usb_util.o
 .comment       0x0000000000000000       0x77 .build/obj_massdrop_ctrl_default/protocol/usb_util.o
 .debug_frame   0x0000000000000000       0x40 .build/obj_massdrop_ctrl_default/protocol/usb_util.o
 .ARM.attributes
                0x0000000000000000       0x34 .build/obj_massdrop_ctrl_default/protocol/usb_util.o
 .text          0x0000000000000000        0x0 .build/obj_massdrop_ctrl_default/platforms/arm_atsam/platform.o
 .data          0x0000000000000000        0x0 .build/obj_massdrop_ctrl_default/platforms/arm_atsam/platform.o
 .bss           0x0000000000000000        0x0 .build/obj_massdrop_ctrl_default/platforms/arm_atsam/platform.o
 .text.platform_setup
                0x0000000000000000        0x2 .build/obj_massdrop_ctrl_default/platforms/arm_atsam/platform.o
 .debug_info    0x0000000000000000       0xcc .build/obj_massdrop_ctrl_default/platforms/arm_atsam/platform.o
 .debug_abbrev  0x0000000000000000       0x80 .build/obj_massdrop_ctrl_default/platforms/arm_atsam/platform.o
 .debug_aranges
                0x0000000000000000       0x20 .build/obj_massdrop_ctrl_default/platforms/arm_atsam/platform.o
 .debug_ranges  0x0000000000000000       0x10 .build/obj_massdrop_ctrl_default/platforms/arm_atsam/platform.o
 .debug_line    0x0000000000000000      0x19f .build/obj_massdrop_ctrl_default/platforms/arm_atsam/platform.o
 .debug_str     0x0000000000000000      0x234 .build/obj_massdrop_ctrl_default/platforms/arm_atsam/platform.o
 .comment       0x0000000000000000       0x77 .build/obj_massdrop_ctrl_default/platforms/arm_atsam/platform.o
 .debug_frame   0x0000000000000000       0x20 .build/obj_massdrop_ctrl_default/platforms/arm_atsam/platform.o
 .ARM.attributes
                0x0000000000000000       0x34 .build/obj_massdrop_ctrl_default/platforms/arm_atsam/platform.o
 .text          0x0000000000000000        0x0 .build/obj_massdrop_ctrl_default/platforms/arm_atsam/suspend.o
 .data          0x0000000000000000        0x0 .build/obj_massdrop_ctrl_default/platforms/arm_atsam/suspend.o
 .bss           0x0000000000000000        0x0 .build/obj_massdrop_ctrl_default/platforms/arm_atsam/suspend.o
 .text.suspend_idle
                0x0000000000000000        0x2 .build/obj_massdrop_ctrl_default/platforms/arm_atsam/suspend.o
 .text.suspend_power_down_user
                0x0000000000000000        0x2 .build/obj_massdrop_ctrl_default/platforms/arm_atsam/suspend.o
 .text.suspend_power_down_kb
                0x0000000000000000        0x8 .build/obj_massdrop_ctrl_default/platforms/arm_atsam/suspend.o
 .text.suspend_wakeup_init_user
                0x0000000000000000        0x2 .build/obj_massdrop_ctrl_default/platforms/arm_atsam/suspend.o
 .text.suspend_wakeup_init_kb
                0x0000000000000000        0x8 .build/obj_massdrop_ctrl_default/platforms/arm_atsam/suspend.o
 .text          0x0000000000000000        0x0 .build/obj_massdrop_ctrl_default/platforms/arm_atsam/timer.o
 .data          0x0000000000000000        0x0 .build/obj_massdrop_ctrl_default/platforms/arm_atsam/timer.o
 .bss           0x0000000000000000        0x0 .build/obj_massdrop_ctrl_default/platforms/arm_atsam/timer.o
 .text.set_time
                0x0000000000000000        0xc .build/obj_massdrop_ctrl_default/platforms/arm_atsam/timer.o
 .text          0x0000000000000000        0x0 .build/obj_massdrop_ctrl_default/platforms/arm_atsam/bootloader.o
 .data          0x0000000000000000        0x0 .build/obj_massdrop_ctrl_default/platforms/arm_atsam/bootloader.o
 .bss           0x0000000000000000        0x0 .build/obj_massdrop_ctrl_default/platforms/arm_atsam/bootloader.o
 .text          0x0000000000000000        0x0 .build/obj_massdrop_ctrl_default/protocol/arm_atsam/adc.o
 .data          0x0000000000000000        0x0 .build/obj_massdrop_ctrl_default/protocol/arm_atsam/adc.o
 .bss           0x0000000000000000        0x0 .build/obj_massdrop_ctrl_default/protocol/arm_atsam/adc.o
 .text          0x0000000000000000        0x0 .build/obj_massdrop_ctrl_default/protocol/arm_atsam/clks.o
 .data          0x0000000000000000        0x0 .build/obj_massdrop_ctrl_default/protocol/arm_atsam/clks.o
 .bss           0x0000000000000000        0x0 .build/obj_massdrop_ctrl_default/protocol/arm_atsam/clks.o
 .text          0x0000000000000000        0x0 .build/obj_massdrop_ctrl_default/protocol/arm_atsam/d51_util.o
 .data          0x0000000000000000        0x0 .build/obj_massdrop_ctrl_default/protocol/arm_atsam/d51_util.o
 .text.dbg_print
                0x0000000000000000       0xdc .build/obj_massdrop_ctrl_default/protocol/arm_atsam/d51_util.o
 .text          0x0000000000000000        0x0 .build/obj_massdrop_ctrl_default/protocol/arm_atsam/i2c_master.o
 .data          0x0000000000000000        0x0 .build/obj_massdrop_ctrl_default/protocol/arm_atsam/i2c_master.o
 .text.i2c_led_send_GCR
                0x0000000000000000       0x3c .build/obj_massdrop_ctrl_default/protocol/arm_atsam/i2c_master.o
 .text.i2c_led_send_onoff
                0x0000000000000000       0x34 .build/obj_massdrop_ctrl_default/protocol/arm_atsam/i2c_master.o
 .text.i2c_led_send_pwm
                0x0000000000000000       0x38 .build/obj_massdrop_ctrl_default/protocol/arm_atsam/i2c_master.o
 .text          0x0000000000000000        0x0 .build/obj_massdrop_ctrl_default/protocol/arm_atsam/md_rgb_matrix_programs.o
 .data          0x0000000000000000        0x0 .build/obj_massdrop_ctrl_default/protocol/arm_atsam/md_rgb_matrix_programs.o
 .bss           0x0000000000000000        0x0 .build/obj_massdrop_ctrl_default/protocol/arm_atsam/md_rgb_matrix_programs.o
 .debug_info    0x0000000000000000       0xb2 .build/obj_massdrop_ctrl_default/protocol/arm_atsam/md_rgb_matrix_programs.o
 .debug_abbrev  0x0000000000000000       0x62 .build/obj_massdrop_ctrl_default/protocol/arm_atsam/md_rgb_matrix_programs.o
 .debug_aranges
                0x0000000000000000       0x18 .build/obj_massdrop_ctrl_default/protocol/arm_atsam/md_rgb_matrix_programs.o
 .debug_line    0x0000000000000000      0x169 .build/obj_massdrop_ctrl_default/protocol/arm_atsam/md_rgb_matrix_programs.o
 .debug_str     0x0000000000000000      0x23b .build/obj_massdrop_ctrl_default/protocol/arm_atsam/md_rgb_matrix_programs.o
 .comment       0x0000000000000000       0x77 .build/obj_massdrop_ctrl_default/protocol/arm_atsam/md_rgb_matrix_programs.o
 .ARM.attributes
                0x0000000000000000       0x39 .build/obj_massdrop_ctrl_default/protocol/arm_atsam/md_rgb_matrix_programs.o
 .text          0x0000000000000000        0x0 .build/obj_massdrop_ctrl_default/protocol/arm_atsam/md_rgb_matrix.o
 .text          0x0000000000000000        0x0 .build/obj_massdrop_ctrl_default/protocol/arm_atsam/main_arm_atsam.o
 COMMON         0x0000000000000000        0x1 .build/obj_massdrop_ctrl_default/protocol/arm_atsam/main_arm_atsam.o
 .text          0x0000000000000000        0x0 .build/obj_massdrop_ctrl_default/protocol/arm_atsam/shift_register.o
 .data          0x0000000000000000        0x0 .build/obj_massdrop_ctrl_default/protocol/arm_atsam/shift_register.o
 .bss           0x0000000000000000        0x0 .build/obj_massdrop_ctrl_default/protocol/arm_atsam/shift_register.o
 .text.shift_init_impl
                0x0000000000000000        0x4 .build/obj_massdrop_ctrl_default/protocol/arm_atsam/shift_register.o
 .text.shift_out
                0x0000000000000000        0x4 .build/obj_massdrop_ctrl_default/protocol/arm_atsam/shift_register.o
 .text          0x0000000000000000        0x0 .build/obj_massdrop_ctrl_default/protocol/arm_atsam/spi_master.o
 .text          0x0000000000000000        0x0 .build/obj_massdrop_ctrl_default/protocol/arm_atsam/startup.o
 .data          0x0000000000000000        0x0 .build/obj_massdrop_ctrl_default/protocol/arm_atsam/startup.o
 .bss           0x0000000000000000        0x0 .build/obj_massdrop_ctrl_default/protocol/arm_atsam/startup.o
 .text          0x0000000000000000        0x0 .build/obj_massdrop_ctrl_default/protocol/arm_atsam/usb/main_usb.o
 .text          0x0000000000000000        0x0 .build/obj_massdrop_ctrl_default/protocol/arm_atsam/usb/udc.o
 .text.udc_stop
                0x0000000000000000        0xe .build/obj_massdrop_ctrl_default/protocol/arm_atsam/usb/udc.o
 .text          0x0000000000000000        0x0 .build/obj_massdrop_ctrl_default/protocol/arm_atsam/usb/udi_cdc.o
 .data          0x0000000000000000        0x0 .build/obj_massdrop_ctrl_default/protocol/arm_atsam/usb/udi_cdc.o
 .bss           0x0000000000000000        0x0 .build/obj_massdrop_ctrl_default/protocol/arm_atsam/usb/udi_cdc.o
 .text.CDC_send
                0x0000000000000000        0x2 .build/obj_massdrop_ctrl_default/protocol/arm_atsam/usb/udi_cdc.o
 .text.CDC_printf
                0x0000000000000000        0x8 .build/obj_massdrop_ctrl_default/protocol/arm_atsam/usb/udi_cdc.o
 .text.CDC_input
                0x0000000000000000        0x4 .build/obj_massdrop_ctrl_default/protocol/arm_atsam/usb/udi_cdc.o
 .text          0x0000000000000000        0x0 .build/obj_massdrop_ctrl_default/protocol/arm_atsam/usb/udi_hid.o
 .data          0x0000000000000000        0x0 .build/obj_massdrop_ctrl_default/protocol/arm_atsam/usb/udi_hid.o
 .bss           0x0000000000000000        0x0 .build/obj_massdrop_ctrl_default/protocol/arm_atsam/usb/udi_hid.o
 .text          0x0000000000000000        0x0 .build/obj_massdrop_ctrl_default/protocol/arm_atsam/usb/udi_hid_kbd.o
 .text          0x0000000000000000        0x0 .build/obj_massdrop_ctrl_default/protocol/arm_atsam/usb/udi_hid_kbd_desc.o
 .bss           0x0000000000000000        0x0 .build/obj_massdrop_ctrl_default/protocol/arm_atsam/usb/udi_hid_kbd_desc.o
 .text          0x0000000000000000        0x0 .build/obj_massdrop_ctrl_default/protocol/arm_atsam/usb/ui.o
 .data          0x0000000000000000        0x0 .build/obj_massdrop_ctrl_default/protocol/arm_atsam/usb/ui.o
 .bss           0x0000000000000000        0x0 .build/obj_massdrop_ctrl_default/protocol/arm_atsam/usb/ui.o
 .text.ui_init  0x0000000000000000        0x2 .build/obj_massdrop_ctrl_default/protocol/arm_atsam/usb/ui.o
 .text.ui_kbd_led
                0x0000000000000000        0x2 .build/obj_massdrop_ctrl_default/protocol/arm_atsam/usb/ui.o
 .text          0x0000000000000000        0x0 .build/obj_massdrop_ctrl_default/protocol/arm_atsam/usb/usb.o
 .data          0x0000000000000000        0x0 .build/obj_massdrop_ctrl_default/protocol/arm_atsam/usb/usb.o
 .text.usb_device_unregister_callback
                0x0000000000000000       0x24 .build/obj_massdrop_ctrl_default/protocol/arm_atsam/usb/usb.o
 .text.usb_device_endpoint_is_configured
                0x0000000000000000       0x22 .build/obj_massdrop_ctrl_default/protocol/arm_atsam/usb/usb.o
 .text.usb_disable
                0x0000000000000000       0x20 .build/obj_massdrop_ctrl_default/protocol/arm_atsam/usb/usb.o
 .text          0x0000000000000000        0x0 .build/obj_massdrop_ctrl_default/protocol/arm_atsam/usb/usb_device_udd.o
 .data          0x0000000000000000        0x0 .build/obj_massdrop_ctrl_default/protocol/arm_atsam/usb/usb_device_udd.o
 .text.udd_is_high_speed
                0x0000000000000000        0x4 .build/obj_massdrop_ctrl_default/protocol/arm_atsam/usb/usb_device_udd.o
 .text.udd_get_micro_frame_number
                0x0000000000000000        0xc .build/obj_massdrop_ctrl_default/protocol/arm_atsam/usb/usb_device_udd.o
 .text.udd_ep_wait_stall_clear
                0x0000000000000000       0x50 .build/obj_massdrop_ctrl_default/protocol/arm_atsam/usb/usb_device_udd.o
 .text.udd_detach
                0x0000000000000000       0x14 .build/obj_massdrop_ctrl_default/protocol/arm_atsam/usb/usb_device_udd.o
 .text.udd_disable
                0x0000000000000000        0x4 .build/obj_massdrop_ctrl_default/protocol/arm_atsam/usb/usb_device_udd.o
 .text          0x0000000000000000        0x0 .build/obj_massdrop_ctrl_default/protocol/arm_atsam/usb/usb_hub.o
 .data          0x0000000000000000        0x0 .build/obj_massdrop_ctrl_default/protocol/arm_atsam/usb/usb_hub.o
 .bss           0x0000000000000000        0x0 .build/obj_massdrop_ctrl_default/protocol/arm_atsam/usb/usb_hub.o
 .text.USB_active
                0x0000000000000000        0x8 .build/obj_massdrop_ctrl_default/protocol/arm_atsam/usb/usb_hub.o
 .text          0x0000000000000000        0x0 .build/obj_massdrop_ctrl_default/protocol/arm_atsam/usb/usb_util.o
 .data          0x0000000000000000        0x0 .build/obj_massdrop_ctrl_default/protocol/arm_atsam/usb/usb_util.o
 .bss           0x0000000000000000        0x0 .build/obj_massdrop_ctrl_default/protocol/arm_atsam/usb/usb_util.o
 .text.digit    0x0000000000000000        0xe .build/obj_massdrop_ctrl_default/protocol/arm_atsam/usb/usb_util.o
 .text.UTIL_ltoa_radix
                0x0000000000000000       0x92 .build/obj_massdrop_ctrl_default/protocol/arm_atsam/usb/usb_util.o
 .text.UTIL_ltoa
                0x0000000000000000        0x6 .build/obj_massdrop_ctrl_default/protocol/arm_atsam/usb/usb_util.o
 .text.UTIL_itoa
                0x0000000000000000        0xa .build/obj_massdrop_ctrl_default/protocol/arm_atsam/usb/usb_util.o
 .text.UTIL_utoa
                0x0000000000000000        0xa .build/obj_massdrop_ctrl_default/protocol/arm_atsam/usb/usb_util.o
 .debug_info    0x0000000000000000      0xc1a .build/obj_massdrop_ctrl_default/protocol/arm_atsam/usb/usb_util.o
 .debug_abbrev  0x0000000000000000      0x312 .build/obj_massdrop_ctrl_default/protocol/arm_atsam/usb/usb_util.o
 .debug_loc     0x0000000000000000      0x282 .build/obj_massdrop_ctrl_default/protocol/arm_atsam/usb/usb_util.o
 .debug_aranges
                0x0000000000000000       0x40 .build/obj_massdrop_ctrl_default/protocol/arm_atsam/usb/usb_util.o
 .debug_ranges  0x0000000000000000       0x48 .build/obj_massdrop_ctrl_default/protocol/arm_atsam/usb/usb_util.o
 .debug_line    0x0000000000000000      0x395 .build/obj_massdrop_ctrl_default/protocol/arm_atsam/usb/usb_util.o
 .debug_str     0x0000000000000000      0x6ac .build/obj_massdrop_ctrl_default/protocol/arm_atsam/usb/usb_util.o
 .comment       0x0000000000000000       0x77 .build/obj_massdrop_ctrl_default/protocol/arm_atsam/usb/usb_util.o
 .debug_frame   0x0000000000000000       0x80 .build/obj_massdrop_ctrl_default/protocol/arm_atsam/usb/usb_util.o
 .ARM.attributes
                0x0000000000000000       0x34 .build/obj_massdrop_ctrl_default/protocol/arm_atsam/usb/usb_util.o
 .text          0x0000000000000000        0x0 .build/obj_massdrop_ctrl_default/drivers/usb2422.o
 .data          0x0000000000000000        0x0 .build/obj_massdrop_ctrl_default/drivers/usb2422.o
 .text.USB2422_reset
                0x0000000000000000        0x2 .build/obj_massdrop_ctrl_default/drivers/usb2422.o
 .data          0x0000000000000000        0x0 /opt/homebrew/Cellar/arm-gcc-bin@8/8-2019-q3-update_1/bin/../lib/gcc/arm-none-eabi/8.3.1/thumb/v7e-m+fp/hard/libgcc.a(_arm_addsubdf3.o)
 .bss           0x0000000000000000        0x0 /opt/homebrew/Cellar/arm-gcc-bin@8/8-2019-q3-update_1/bin/../lib/gcc/arm-none-eabi/8.3.1/thumb/v7e-m+fp/hard/libgcc.a(_arm_addsubdf3.o)
 .data          0x0000000000000000        0x0 /opt/homebrew/Cellar/arm-gcc-bin@8/8-2019-q3-update_1/bin/../lib/gcc/arm-none-eabi/8.3.1/thumb/v7e-m+fp/hard/libgcc.a(_arm_muldivdf3.o)
 .bss           0x0000000000000000        0x0 /opt/homebrew/Cellar/arm-gcc-bin@8/8-2019-q3-update_1/bin/../lib/gcc/arm-none-eabi/8.3.1/thumb/v7e-m+fp/hard/libgcc.a(_arm_muldivdf3.o)
 .data          0x0000000000000000        0x0 /opt/homebrew/Cellar/arm-gcc-bin@8/8-2019-q3-update_1/bin/../lib/gcc/arm-none-eabi/8.3.1/thumb/v7e-m+fp/hard/libgcc.a(_arm_fixunsdfsi.o)
 .bss           0x0000000000000000        0x0 /opt/homebrew/Cellar/arm-gcc-bin@8/8-2019-q3-update_1/bin/../lib/gcc/arm-none-eabi/8.3.1/thumb/v7e-m+fp/hard/libgcc.a(_arm_fixunsdfsi.o)
 .text          0x0000000000000000       0xa0 /opt/homebrew/Cellar/arm-gcc-bin@8/8-2019-q3-update_1/bin/../lib/gcc/arm-none-eabi/8.3.1/thumb/v7e-m+fp/hard/libgcc.a(_aeabi_ldivmod.o)
 .data          0x0000000000000000        0x0 /opt/homebrew/Cellar/arm-gcc-bin@8/8-2019-q3-update_1/bin/../lib/gcc/arm-none-eabi/8.3.1/thumb/v7e-m+fp/hard/libgcc.a(_aeabi_ldivmod.o)
 .bss           0x0000000000000000        0x0 /opt/homebrew/Cellar/arm-gcc-bin@8/8-2019-q3-update_1/bin/../lib/gcc/arm-none-eabi/8.3.1/thumb/v7e-m+fp/hard/libgcc.a(_aeabi_ldivmod.o)
 .debug_frame   0x0000000000000000       0x44 /opt/homebrew/Cellar/arm-gcc-bin@8/8-2019-q3-update_1/bin/../lib/gcc/arm-none-eabi/8.3.1/thumb/v7e-m+fp/hard/libgcc.a(_aeabi_ldivmod.o)
 .ARM.attributes
                0x0000000000000000       0x1e /opt/homebrew/Cellar/arm-gcc-bin@8/8-2019-q3-update_1/bin/../lib/gcc/arm-none-eabi/8.3.1/thumb/v7e-m+fp/hard/libgcc.a(_aeabi_ldivmod.o)
 .data          0x0000000000000000        0x0 /opt/homebrew/Cellar/arm-gcc-bin@8/8-2019-q3-update_1/bin/../lib/gcc/arm-none-eabi/8.3.1/thumb/v7e-m+fp/hard/libgcc.a(_aeabi_uldivmod.o)
 .bss           0x0000000000000000        0x0 /opt/homebrew/Cellar/arm-gcc-bin@8/8-2019-q3-update_1/bin/../lib/gcc/arm-none-eabi/8.3.1/thumb/v7e-m+fp/hard/libgcc.a(_aeabi_uldivmod.o)
 .data          0x0000000000000000        0x0 /opt/homebrew/Cellar/arm-gcc-bin@8/8-2019-q3-update_1/bin/../lib/gcc/arm-none-eabi/8.3.1/thumb/v7e-m+fp/hard/libgcc.a(_udivmoddi4.o)
 .bss           0x0000000000000000        0x0 /opt/homebrew/Cellar/arm-gcc-bin@8/8-2019-q3-update_1/bin/../lib/gcc/arm-none-eabi/8.3.1/thumb/v7e-m+fp/hard/libgcc.a(_udivmoddi4.o)
 .ARM.extab     0x0000000000000000        0x0 /opt/homebrew/Cellar/arm-gcc-bin@8/8-2019-q3-update_1/bin/../lib/gcc/arm-none-eabi/8.3.1/thumb/v7e-m+fp/hard/libgcc.a(_udivmoddi4.o)
 .data          0x0000000000000000        0x0 /opt/homebrew/Cellar/arm-gcc-bin@8/8-2019-q3-update_1/bin/../lib/gcc/arm-none-eabi/8.3.1/thumb/v7e-m+fp/hard/libgcc.a(_dvmd_tls.o)
 .bss           0x0000000000000000        0x0 /opt/homebrew/Cellar/arm-gcc-bin@8/8-2019-q3-update_1/bin/../lib/gcc/arm-none-eabi/8.3.1/thumb/v7e-m+fp/hard/libgcc.a(_dvmd_tls.o)
 .text          0x0000000000000000        0x0 /opt/homebrew/Cellar/arm-gcc-bin@8/8-2019-q3-update_1/bin/../lib/gcc/arm-none-eabi/8.3.1/../../../../arm-none-eabi/lib/thumb/v7e-m+fp/hard/libg.a(lib_a-ctype_.o)
 .data          0x0000000000000000        0x0 /opt/homebrew/Cellar/arm-gcc-bin@8/8-2019-q3-update_1/bin/../lib/gcc/arm-none-eabi/8.3.1/../../../../arm-none-eabi/lib/thumb/v7e-m+fp/hard/libg.a(lib_a-ctype_.o)
 .bss           0x0000000000000000        0x0 /opt/homebrew/Cellar/arm-gcc-bin@8/8-2019-q3-update_1/bin/../lib/gcc/arm-none-eabi/8.3.1/../../../../arm-none-eabi/lib/thumb/v7e-m+fp/hard/libg.a(lib_a-ctype_.o)
 .rodata._ctype_
                0x0000000000000000      0x101 /opt/homebrew/Cellar/arm-gcc-bin@8/8-2019-q3-update_1/bin/../lib/gcc/arm-none-eabi/8.3.1/../../../../arm-none-eabi/lib/thumb/v7e-m+fp/hard/libg.a(lib_a-ctype_.o)
 .ARM.attributes
                0x0000000000000000       0x32 /opt/homebrew/Cellar/arm-gcc-bin@8/8-2019-q3-update_1/bin/../lib/gcc/arm-none-eabi/8.3.1/../../../../arm-none-eabi/lib/thumb/v7e-m+fp/hard/libg.a(lib_a-ctype_.o)
 .text          0x0000000000000000        0x0 /opt/homebrew/Cellar/arm-gcc-bin@8/8-2019-q3-update_1/bin/../lib/gcc/arm-none-eabi/8.3.1/../../../../arm-none-eabi/lib/thumb/v7e-m+fp/hard/libg.a(lib_a-exit.o)
 .data          0x0000000000000000        0x0 /opt/homebrew/Cellar/arm-gcc-bin@8/8-2019-q3-update_1/bin/../lib/gcc/arm-none-eabi/8.3.1/../../../../arm-none-eabi/lib/thumb/v7e-m+fp/hard/libg.a(lib_a-exit.o)
 .bss           0x0000000000000000        0x0 /opt/homebrew/Cellar/arm-gcc-bin@8/8-2019-q3-update_1/bin/../lib/gcc/arm-none-eabi/8.3.1/../../../../arm-none-eabi/lib/thumb/v7e-m+fp/hard/libg.a(lib_a-exit.o)
 .text.exit     0x0000000000000000       0x20 /opt/homebrew/Cellar/arm-gcc-bin@8/8-2019-q3-update_1/bin/../lib/gcc/arm-none-eabi/8.3.1/../../../../arm-none-eabi/lib/thumb/v7e-m+fp/hard/libg.a(lib_a-exit.o)
 .debug_frame   0x0000000000000000       0x28 /opt/homebrew/Cellar/arm-gcc-bin@8/8-2019-q3-update_1/bin/../lib/gcc/arm-none-eabi/8.3.1/../../../../arm-none-eabi/lib/thumb/v7e-m+fp/hard/libg.a(lib_a-exit.o)
 .ARM.attributes
                0x0000000000000000       0x34 /opt/homebrew/Cellar/arm-gcc-bin@8/8-2019-q3-update_1/bin/../lib/gcc/arm-none-eabi/8.3.1/../../../../arm-none-eabi/lib/thumb/v7e-m+fp/hard/libg.a(lib_a-exit.o)
 .text          0x0000000000000000        0x0 /opt/homebrew/Cellar/arm-gcc-bin@8/8-2019-q3-update_1/bin/../lib/gcc/arm-none-eabi/8.3.1/../../../../arm-none-eabi/lib/thumb/v7e-m+fp/hard/libg.a(lib_a-impure.o)
 .data          0x0000000000000000        0x0 /opt/homebrew/Cellar/arm-gcc-bin@8/8-2019-q3-update_1/bin/../lib/gcc/arm-none-eabi/8.3.1/../../../../arm-none-eabi/lib/thumb/v7e-m+fp/hard/libg.a(lib_a-impure.o)
 .bss           0x0000000000000000        0x0 /opt/homebrew/Cellar/arm-gcc-bin@8/8-2019-q3-update_1/bin/../lib/gcc/arm-none-eabi/8.3.1/../../../../arm-none-eabi/lib/thumb/v7e-m+fp/hard/libg.a(lib_a-impure.o)
 .text          0x0000000000000000        0x0 /opt/homebrew/Cellar/arm-gcc-bin@8/8-2019-q3-update_1/bin/../lib/gcc/arm-none-eabi/8.3.1/../../../../arm-none-eabi/lib/thumb/v7e-m+fp/hard/libg.a(lib_a-init.o)
 .data          0x0000000000000000        0x0 /opt/homebrew/Cellar/arm-gcc-bin@8/8-2019-q3-update_1/bin/../lib/gcc/arm-none-eabi/8.3.1/../../../../arm-none-eabi/lib/thumb/v7e-m+fp/hard/libg.a(lib_a-init.o)
 .bss           0x0000000000000000        0x0 /opt/homebrew/Cellar/arm-gcc-bin@8/8-2019-q3-update_1/bin/../lib/gcc/arm-none-eabi/8.3.1/../../../../arm-none-eabi/lib/thumb/v7e-m+fp/hard/libg.a(lib_a-init.o)
 .text          0x0000000000000000        0x0 /opt/homebrew/Cellar/arm-gcc-bin@8/8-2019-q3-update_1/bin/../lib/gcc/arm-none-eabi/8.3.1/../../../../arm-none-eabi/lib/thumb/v7e-m+fp/hard/libg.a(lib_a-memcmp.o)
 .data          0x0000000000000000        0x0 /opt/homebrew/Cellar/arm-gcc-bin@8/8-2019-q3-update_1/bin/../lib/gcc/arm-none-eabi/8.3.1/../../../../arm-none-eabi/lib/thumb/v7e-m+fp/hard/libg.a(lib_a-memcmp.o)
 .bss           0x0000000000000000        0x0 /opt/homebrew/Cellar/arm-gcc-bin@8/8-2019-q3-update_1/bin/../lib/gcc/arm-none-eabi/8.3.1/../../../../arm-none-eabi/lib/thumb/v7e-m+fp/hard/libg.a(lib_a-memcmp.o)
 .data          0x0000000000000000        0x0 /opt/homebrew/Cellar/arm-gcc-bin@8/8-2019-q3-update_1/bin/../lib/gcc/arm-none-eabi/8.3.1/../../../../arm-none-eabi/lib/thumb/v7e-m+fp/hard/libg.a(lib_a-memcpy.o)
 .bss           0x0000000000000000        0x0 /opt/homebrew/Cellar/arm-gcc-bin@8/8-2019-q3-update_1/bin/../lib/gcc/arm-none-eabi/8.3.1/../../../../arm-none-eabi/lib/thumb/v7e-m+fp/hard/libg.a(lib_a-memcpy.o)
 .text          0x0000000000000000        0x0 /opt/homebrew/Cellar/arm-gcc-bin@8/8-2019-q3-update_1/bin/../lib/gcc/arm-none-eabi/8.3.1/../../../../arm-none-eabi/lib/thumb/v7e-m+fp/hard/libg.a(lib_a-memset.o)
 .data          0x0000000000000000        0x0 /opt/homebrew/Cellar/arm-gcc-bin@8/8-2019-q3-update_1/bin/../lib/gcc/arm-none-eabi/8.3.1/../../../../arm-none-eabi/lib/thumb/v7e-m+fp/hard/libg.a(lib_a-memset.o)
 .bss           0x0000000000000000        0x0 /opt/homebrew/Cellar/arm-gcc-bin@8/8-2019-q3-update_1/bin/../lib/gcc/arm-none-eabi/8.3.1/../../../../arm-none-eabi/lib/thumb/v7e-m+fp/hard/libg.a(lib_a-memset.o)
 .text          0x0000000000000000        0x0 /opt/homebrew/Cellar/arm-gcc-bin@8/8-2019-q3-update_1/bin/../lib/gcc/arm-none-eabi/8.3.1/../../../../arm-none-eabi/lib/thumb/v7e-m+fp/hard/libg.a(lib_a-rand.o)
 .data          0x0000000000000000        0x0 /opt/homebrew/Cellar/arm-gcc-bin@8/8-2019-q3-update_1/bin/../lib/gcc/arm-none-eabi/8.3.1/../../../../arm-none-eabi/lib/thumb/v7e-m+fp/hard/libg.a(lib_a-rand.o)
 .bss           0x0000000000000000        0x0 /opt/homebrew/Cellar/arm-gcc-bin@8/8-2019-q3-update_1/bin/../lib/gcc/arm-none-eabi/8.3.1/../../../../arm-none-eabi/lib/thumb/v7e-m+fp/hard/libg.a(lib_a-rand.o)
 .text.srand    0x0000000000000000       0x10 /opt/homebrew/Cellar/arm-gcc-bin@8/8-2019-q3-update_1/bin/../lib/gcc/arm-none-eabi/8.3.1/../../../../arm-none-eabi/lib/thumb/v7e-m+fp/hard/libg.a(lib_a-rand.o)
 .text          0x0000000000000000        0x0 /opt/homebrew/Cellar/arm-gcc-bin@8/8-2019-q3-update_1/bin/../lib/gcc/arm-none-eabi/8.3.1/../../../../arm-none-eabi/lib/thumb/v7e-m+fp/hard/libg.a(lib_a-__call_atexit.o)
 .data          0x0000000000000000        0x0 /opt/homebrew/Cellar/arm-gcc-bin@8/8-2019-q3-update_1/bin/../lib/gcc/arm-none-eabi/8.3.1/../../../../arm-none-eabi/lib/thumb/v7e-m+fp/hard/libg.a(lib_a-__call_atexit.o)
 .bss           0x0000000000000000        0x0 /opt/homebrew/Cellar/arm-gcc-bin@8/8-2019-q3-update_1/bin/../lib/gcc/arm-none-eabi/8.3.1/../../../../arm-none-eabi/lib/thumb/v7e-m+fp/hard/libg.a(lib_a-__call_atexit.o)
 .text.__call_exitprocs
                0x0000000000000000       0xb0 /opt/homebrew/Cellar/arm-gcc-bin@8/8-2019-q3-update_1/bin/../lib/gcc/arm-none-eabi/8.3.1/../../../../arm-none-eabi/lib/thumb/v7e-m+fp/hard/libg.a(lib_a-__call_atexit.o)
 .text          0x0000000000000000        0x0 /opt/homebrew/Cellar/arm-gcc-bin@8/8-2019-q3-update_1/bin/../lib/gcc/arm-none-eabi/8.3.1/../../../../arm-none-eabi/lib/thumb/v7e-m+fp/hard/libg.a(lib_a-atexit.o)
 .data          0x0000000000000000        0x0 /opt/homebrew/Cellar/arm-gcc-bin@8/8-2019-q3-update_1/bin/../lib/gcc/arm-none-eabi/8.3.1/../../../../arm-none-eabi/lib/thumb/v7e-m+fp/hard/libg.a(lib_a-atexit.o)
 .bss           0x0000000000000000        0x0 /opt/homebrew/Cellar/arm-gcc-bin@8/8-2019-q3-update_1/bin/../lib/gcc/arm-none-eabi/8.3.1/../../../../arm-none-eabi/lib/thumb/v7e-m+fp/hard/libg.a(lib_a-atexit.o)
 .text          0x0000000000000000        0x0 /opt/homebrew/Cellar/arm-gcc-bin@8/8-2019-q3-update_1/bin/../lib/gcc/arm-none-eabi/8.3.1/../../../../arm-none-eabi/lib/thumb/v7e-m+fp/hard/libg.a(lib_a-fini.o)
 .data          0x0000000000000000        0x0 /opt/homebrew/Cellar/arm-gcc-bin@8/8-2019-q3-update_1/bin/../lib/gcc/arm-none-eabi/8.3.1/../../../../arm-none-eabi/lib/thumb/v7e-m+fp/hard/libg.a(lib_a-fini.o)
 .bss           0x0000000000000000        0x0 /opt/homebrew/Cellar/arm-gcc-bin@8/8-2019-q3-update_1/bin/../lib/gcc/arm-none-eabi/8.3.1/../../../../arm-none-eabi/lib/thumb/v7e-m+fp/hard/libg.a(lib_a-fini.o)
 .text          0x0000000000000000        0x0 /opt/homebrew/Cellar/arm-gcc-bin@8/8-2019-q3-update_1/bin/../lib/gcc/arm-none-eabi/8.3.1/../../../../arm-none-eabi/lib/thumb/v7e-m+fp/hard/libg.a(lib_a-lock.o)
 .data          0x0000000000000000        0x0 /opt/homebrew/Cellar/arm-gcc-bin@8/8-2019-q3-update_1/bin/../lib/gcc/arm-none-eabi/8.3.1/../../../../arm-none-eabi/lib/thumb/v7e-m+fp/hard/libg.a(lib_a-lock.o)
 .bss           0x0000000000000000        0x0 /opt/homebrew/Cellar/arm-gcc-bin@8/8-2019-q3-update_1/bin/../lib/gcc/arm-none-eabi/8.3.1/../../../../arm-none-eabi/lib/thumb/v7e-m+fp/hard/libg.a(lib_a-lock.o)
 .text.__retarget_lock_init
                0x0000000000000000        0x4 /opt/homebrew/Cellar/arm-gcc-bin@8/8-2019-q3-update_1/bin/../lib/gcc/arm-none-eabi/8.3.1/../../../../arm-none-eabi/lib/thumb/v7e-m+fp/hard/libg.a(lib_a-lock.o)
 .text.__retarget_lock_init_recursive
                0x0000000000000000        0x4 /opt/homebrew/Cellar/arm-gcc-bin@8/8-2019-q3-update_1/bin/../lib/gcc/arm-none-eabi/8.3.1/../../../../arm-none-eabi/lib/thumb/v7e-m+fp/hard/libg.a(lib_a-lock.o)
 .text.__retarget_lock_close
                0x0000000000000000        0x4 /opt/homebrew/Cellar/arm-gcc-bin@8/8-2019-q3-update_1/bin/../lib/gcc/arm-none-eabi/8.3.1/../../../../arm-none-eabi/lib/thumb/v7e-m+fp/hard/libg.a(lib_a-lock.o)
 .text.__retarget_lock_close_recursive
                0x0000000000000000        0x4 /opt/homebrew/Cellar/arm-gcc-bin@8/8-2019-q3-update_1/bin/../lib/gcc/arm-none-eabi/8.3.1/../../../../arm-none-eabi/lib/thumb/v7e-m+fp/hard/libg.a(lib_a-lock.o)
 .text.__retarget_lock_acquire
                0x0000000000000000        0x4 /opt/homebrew/Cellar/arm-gcc-bin@8/8-2019-q3-update_1/bin/../lib/gcc/arm-none-eabi/8.3.1/../../../../arm-none-eabi/lib/thumb/v7e-m+fp/hard/libg.a(lib_a-lock.o)
 .text.__retarget_lock_try_acquire
                0x0000000000000000        0x4 /opt/homebrew/Cellar/arm-gcc-bin@8/8-2019-q3-update_1/bin/../lib/gcc/arm-none-eabi/8.3.1/../../../../arm-none-eabi/lib/thumb/v7e-m+fp/hard/libg.a(lib_a-lock.o)
 .text.__retarget_lock_try_acquire_recursive
                0x0000000000000000        0x4 /opt/homebrew/Cellar/arm-gcc-bin@8/8-2019-q3-update_1/bin/../lib/gcc/arm-none-eabi/8.3.1/../../../../arm-none-eabi/lib/thumb/v7e-m+fp/hard/libg.a(lib_a-lock.o)
 .text.__retarget_lock_release
                0x0000000000000000        0x4 /opt/homebrew/Cellar/arm-gcc-bin@8/8-2019-q3-update_1/bin/../lib/gcc/arm-none-eabi/8.3.1/../../../../arm-none-eabi/lib/thumb/v7e-m+fp/hard/libg.a(lib_a-lock.o)
 .text          0x0000000000000000        0x0 /opt/homebrew/Cellar/arm-gcc-bin@8/8-2019-q3-update_1/bin/../lib/gcc/arm-none-eabi/8.3.1/../../../../arm-none-eabi/lib/thumb/v7e-m+fp/hard/libg.a(lib_a-__atexit.o)
 .data          0x0000000000000000        0x0 /opt/homebrew/Cellar/arm-gcc-bin@8/8-2019-q3-update_1/bin/../lib/gcc/arm-none-eabi/8.3.1/../../../../arm-none-eabi/lib/thumb/v7e-m+fp/hard/libg.a(lib_a-__atexit.o)
 .bss           0x0000000000000000        0x0 /opt/homebrew/Cellar/arm-gcc-bin@8/8-2019-q3-update_1/bin/../lib/gcc/arm-none-eabi/8.3.1/../../../../arm-none-eabi/lib/thumb/v7e-m+fp/hard/libg.a(lib_a-__atexit.o)
 .text          0x0000000000000000        0x0 /opt/homebrew/Cellar/arm-gcc-bin@8/8-2019-q3-update_1/bin/../lib/gcc/arm-none-eabi/8.3.1/../../../../arm-none-eabi/lib/thumb/v7e-m+fp/hard/librdimon.a(rdimon-syscalls.o)
 .data          0x0000000000000000        0x0 /opt/homebrew/Cellar/arm-gcc-bin@8/8-2019-q3-update_1/bin/../lib/gcc/arm-none-eabi/8.3.1/../../../../arm-none-eabi/lib/thumb/v7e-m+fp/hard/librdimon.a(rdimon-syscalls.o)
 .bss           0x0000000000000000        0x0 /opt/homebrew/Cellar/arm-gcc-bin@8/8-2019-q3-update_1/bin/../lib/gcc/arm-none-eabi/8.3.1/../../../../arm-none-eabi/lib/thumb/v7e-m+fp/hard/librdimon.a(rdimon-syscalls.o)
 .text.findslot
                0x0000000000000000       0x38 /opt/homebrew/Cellar/arm-gcc-bin@8/8-2019-q3-update_1/bin/../lib/gcc/arm-none-eabi/8.3.1/../../../../arm-none-eabi/lib/thumb/v7e-m+fp/hard/librdimon.a(rdimon-syscalls.o)
 .text.checkerror.part.0
                0x0000000000000000       0x1c /opt/homebrew/Cellar/arm-gcc-bin@8/8-2019-q3-update_1/bin/../lib/gcc/arm-none-eabi/8.3.1/../../../../arm-none-eabi/lib/thumb/v7e-m+fp/hard/librdimon.a(rdimon-syscalls.o)
 .text._swiread
                0x0000000000000000       0x28 /opt/homebrew/Cellar/arm-gcc-bin@8/8-2019-q3-update_1/bin/../lib/gcc/arm-none-eabi/8.3.1/../../../../arm-none-eabi/lib/thumb/v7e-m+fp/hard/librdimon.a(rdimon-syscalls.o)
 .text._read    0x0000000000000000       0x50 /opt/homebrew/Cellar/arm-gcc-bin@8/8-2019-q3-update_1/bin/../lib/gcc/arm-none-eabi/8.3.1/../../../../arm-none-eabi/lib/thumb/v7e-m+fp/hard/librdimon.a(rdimon-syscalls.o)
 .text._swilseek
                0x0000000000000000       0x98 /opt/homebrew/Cellar/arm-gcc-bin@8/8-2019-q3-update_1/bin/../lib/gcc/arm-none-eabi/8.3.1/../../../../arm-none-eabi/lib/thumb/v7e-m+fp/hard/librdimon.a(rdimon-syscalls.o)
 .text._lseek   0x0000000000000000        0x4 /opt/homebrew/Cellar/arm-gcc-bin@8/8-2019-q3-update_1/bin/../lib/gcc/arm-none-eabi/8.3.1/../../../../arm-none-eabi/lib/thumb/v7e-m+fp/hard/librdimon.a(rdimon-syscalls.o)
 .text._swiwrite
                0x0000000000000000       0x28 /opt/homebrew/Cellar/arm-gcc-bin@8/8-2019-q3-update_1/bin/../lib/gcc/arm-none-eabi/8.3.1/../../../../arm-none-eabi/lib/thumb/v7e-m+fp/hard/librdimon.a(rdimon-syscalls.o)
 .text._write   0x0000000000000000       0x74 /opt/homebrew/Cellar/arm-gcc-bin@8/8-2019-q3-update_1/bin/../lib/gcc/arm-none-eabi/8.3.1/../../../../arm-none-eabi/lib/thumb/v7e-m+fp/hard/librdimon.a(rdimon-syscalls.o)
 .text._swiclose
                0x0000000000000000       0x24 /opt/homebrew/Cellar/arm-gcc-bin@8/8-2019-q3-update_1/bin/../lib/gcc/arm-none-eabi/8.3.1/../../../../arm-none-eabi/lib/thumb/v7e-m+fp/hard/librdimon.a(rdimon-syscalls.o)
 .text._close   0x0000000000000000       0x68 /opt/homebrew/Cellar/arm-gcc-bin@8/8-2019-q3-update_1/bin/../lib/gcc/arm-none-eabi/8.3.1/../../../../arm-none-eabi/lib/thumb/v7e-m+fp/hard/librdimon.a(rdimon-syscalls.o)
 .text._getpid  0x0000000000000000        0x4 /opt/homebrew/Cellar/arm-gcc-bin@8/8-2019-q3-update_1/bin/../lib/gcc/arm-none-eabi/8.3.1/../../../../arm-none-eabi/lib/thumb/v7e-m+fp/hard/librdimon.a(rdimon-syscalls.o)
 .text._sbrk    0x0000000000000000       0x4c /opt/homebrew/Cellar/arm-gcc-bin@8/8-2019-q3-update_1/bin/../lib/gcc/arm-none-eabi/8.3.1/../../../../arm-none-eabi/lib/thumb/v7e-m+fp/hard/librdimon.a(rdimon-syscalls.o)
 .text._swistat
                0x0000000000000000       0x48 /opt/homebrew/Cellar/arm-gcc-bin@8/8-2019-q3-update_1/bin/../lib/gcc/arm-none-eabi/8.3.1/../../../../arm-none-eabi/lib/thumb/v7e-m+fp/hard/librdimon.a(rdimon-syscalls.o)
 .text._fstat   0x0000000000000000       0x1c /opt/homebrew/Cellar/arm-gcc-bin@8/8-2019-q3-update_1/bin/../lib/gcc/arm-none-eabi/8.3.1/../../../../arm-none-eabi/lib/thumb/v7e-m+fp/hard/librdimon.a(rdimon-syscalls.o)
 .text._stat    0x0000000000000000       0x3c /opt/homebrew/Cellar/arm-gcc-bin@8/8-2019-q3-update_1/bin/../lib/gcc/arm-none-eabi/8.3.1/../../../../arm-none-eabi/lib/thumb/v7e-m+fp/hard/librdimon.a(rdimon-syscalls.o)
 .text._swiopen
                0x0000000000000000       0xc8 /opt/homebrew/Cellar/arm-gcc-bin@8/8-2019-q3-update_1/bin/../lib/gcc/arm-none-eabi/8.3.1/../../../../arm-none-eabi/lib/thumb/v7e-m+fp/hard/librdimon.a(rdimon-syscalls.o)
 .text._open    0x0000000000000000       0x14 /opt/homebrew/Cellar/arm-gcc-bin@8/8-2019-q3-update_1/bin/../lib/gcc/arm-none-eabi/8.3.1/../../../../arm-none-eabi/lib/thumb/v7e-m+fp/hard/librdimon.a(rdimon-syscalls.o)
 .text._get_semihosting_exts
                0x0000000000000000       0xcc /opt/homebrew/Cellar/arm-gcc-bin@8/8-2019-q3-update_1/bin/../lib/gcc/arm-none-eabi/8.3.1/../../../../arm-none-eabi/lib/thumb/v7e-m+fp/hard/librdimon.a(rdimon-syscalls.o)
 .text.initialise_semihosting_exts
                0x0000000000000000       0x3c /opt/homebrew/Cellar/arm-gcc-bin@8/8-2019-q3-update_1/bin/../lib/gcc/arm-none-eabi/8.3.1/../../../../arm-none-eabi/lib/thumb/v7e-m+fp/hard/librdimon.a(rdimon-syscalls.o)
 .text._has_ext_exit_extended
                0x0000000000000000       0x18 /opt/homebrew/Cellar/arm-gcc-bin@8/8-2019-q3-update_1/bin/../lib/gcc/arm-none-eabi/8.3.1/../../../../arm-none-eabi/lib/thumb/v7e-m+fp/hard/librdimon.a(rdimon-syscalls.o)
 .text._has_ext_stdout_stderr
                0x0000000000000000       0x18 /opt/homebrew/Cellar/arm-gcc-bin@8/8-2019-q3-update_1/bin/../lib/gcc/arm-none-eabi/8.3.1/../../../../arm-none-eabi/lib/thumb/v7e-m+fp/hard/librdimon.a(rdimon-syscalls.o)
 .text.initialise_monitor_handles
                0x0000000000000000      0x10c /opt/homebrew/Cellar/arm-gcc-bin@8/8-2019-q3-update_1/bin/../lib/gcc/arm-none-eabi/8.3.1/../../../../arm-none-eabi/lib/thumb/v7e-m+fp/hard/librdimon.a(rdimon-syscalls.o)
 .text._link    0x0000000000000000       0x10 /opt/homebrew/Cellar/arm-gcc-bin@8/8-2019-q3-update_1/bin/../lib/gcc/arm-none-eabi/8.3.1/../../../../arm-none-eabi/lib/thumb/v7e-m+fp/hard/librdimon.a(rdimon-syscalls.o)
 .text._unlink  0x0000000000000000       0x3c /opt/homebrew/Cellar/arm-gcc-bin@8/8-2019-q3-update_1/bin/../lib/gcc/arm-none-eabi/8.3.1/../../../../arm-none-eabi/lib/thumb/v7e-m+fp/hard/librdimon.a(rdimon-syscalls.o)
 .text._gettimeofday
                0x0000000000000000       0x2c /opt/homebrew/Cellar/arm-gcc-bin@8/8-2019-q3-update_1/bin/../lib/gcc/arm-none-eabi/8.3.1/../../../../arm-none-eabi/lib/thumb/v7e-m+fp/hard/librdimon.a(rdimon-syscalls.o)
 .text._clock   0x0000000000000000       0x14 /opt/homebrew/Cellar/arm-gcc-bin@8/8-2019-q3-update_1/bin/../lib/gcc/arm-none-eabi/8.3.1/../../../../arm-none-eabi/lib/thumb/v7e-m+fp/hard/librdimon.a(rdimon-syscalls.o)
 .text._times   0x0000000000000000       0x20 /opt/homebrew/Cellar/arm-gcc-bin@8/8-2019-q3-update_1/bin/../lib/gcc/arm-none-eabi/8.3.1/../../../../arm-none-eabi/lib/thumb/v7e-m+fp/hard/librdimon.a(rdimon-syscalls.o)
 .text._isatty  0x0000000000000000       0x3c /opt/homebrew/Cellar/arm-gcc-bin@8/8-2019-q3-update_1/bin/../lib/gcc/arm-none-eabi/8.3.1/../../../../arm-none-eabi/lib/thumb/v7e-m+fp/hard/librdimon.a(rdimon-syscalls.o)
 .text._system  0x0000000000000000       0x48 /opt/homebrew/Cellar/arm-gcc-bin@8/8-2019-q3-update_1/bin/../lib/gcc/arm-none-eabi/8.3.1/../../../../arm-none-eabi/lib/thumb/v7e-m+fp/hard/librdimon.a(rdimon-syscalls.o)
 .text._rename  0x0000000000000000       0x3c /opt/homebrew/Cellar/arm-gcc-bin@8/8-2019-q3-update_1/bin/../lib/gcc/arm-none-eabi/8.3.1/../../../../arm-none-eabi/lib/thumb/v7e-m+fp/hard/librdimon.a(rdimon-syscalls.o)
 .bss.heap_end.7689
                0x0000000000000000        0x4 /opt/homebrew/Cellar/arm-gcc-bin@8/8-2019-q3-update_1/bin/../lib/gcc/arm-none-eabi/8.3.1/../../../../arm-none-eabi/lib/thumb/v7e-m+fp/hard/librdimon.a(rdimon-syscalls.o)
 .bss.monitor_stderr
                0x0000000000000000        0x4 /opt/homebrew/Cellar/arm-gcc-bin@8/8-2019-q3-update_1/bin/../lib/gcc/arm-none-eabi/8.3.1/../../../../arm-none-eabi/lib/thumb/v7e-m+fp/hard/librdimon.a(rdimon-syscalls.o)
 .bss.monitor_stdin
                0x0000000000000000        0x4 /opt/homebrew/Cellar/arm-gcc-bin@8/8-2019-q3-update_1/bin/../lib/gcc/arm-none-eabi/8.3.1/../../../../arm-none-eabi/lib/thumb/v7e-m+fp/hard/librdimon.a(rdimon-syscalls.o)
 .bss.monitor_stdout
                0x0000000000000000        0x4 /opt/homebrew/Cellar/arm-gcc-bin@8/8-2019-q3-update_1/bin/../lib/gcc/arm-none-eabi/8.3.1/../../../../arm-none-eabi/lib/thumb/v7e-m+fp/hard/librdimon.a(rdimon-syscalls.o)
 .bss.openfiles
                0x0000000000000000       0xa0 /opt/homebrew/Cellar/arm-gcc-bin@8/8-2019-q3-update_1/bin/../lib/gcc/arm-none-eabi/8.3.1/../../../../arm-none-eabi/lib/thumb/v7e-m+fp/hard/librdimon.a(rdimon-syscalls.o)
 .data.__heap_limit
                0x0000000000000000        0x4 /opt/homebrew/Cellar/arm-gcc-bin@8/8-2019-q3-update_1/bin/../lib/gcc/arm-none-eabi/8.3.1/../../../../arm-none-eabi/lib/thumb/v7e-m+fp/hard/librdimon.a(rdimon-syscalls.o)
 .data.supports_ext_exit_extended
                0x0000000000000000        0x4 /opt/homebrew/Cellar/arm-gcc-bin@8/8-2019-q3-update_1/bin/../lib/gcc/arm-none-eabi/8.3.1/../../../../arm-none-eabi/lib/thumb/v7e-m+fp/hard/librdimon.a(rdimon-syscalls.o)
 .data.supports_ext_stdout_stderr
                0x0000000000000000        0x4 /opt/homebrew/Cellar/arm-gcc-bin@8/8-2019-q3-update_1/bin/../lib/gcc/arm-none-eabi/8.3.1/../../../../arm-none-eabi/lib/thumb/v7e-m+fp/hard/librdimon.a(rdimon-syscalls.o)
 .rodata._get_semihosting_exts.str1.4
                0x0000000000000000       0x16 /opt/homebrew/Cellar/arm-gcc-bin@8/8-2019-q3-update_1/bin/../lib/gcc/arm-none-eabi/8.3.1/../../../../arm-none-eabi/lib/thumb/v7e-m+fp/hard/librdimon.a(rdimon-syscalls.o)
 .rodata.initialise_monitor_handles.str1.4
                0x0000000000000000        0x4 /opt/homebrew/Cellar/arm-gcc-bin@8/8-2019-q3-update_1/bin/../lib/gcc/arm-none-eabi/8.3.1/../../../../arm-none-eabi/lib/thumb/v7e-m+fp/hard/librdimon.a(rdimon-syscalls.o)
 .debug_frame   0x0000000000000000      0x3fc /opt/homebrew/Cellar/arm-gcc-bin@8/8-2019-q3-update_1/bin/../lib/gcc/arm-none-eabi/8.3.1/../../../../arm-none-eabi/lib/thumb/v7e-m+fp/hard/librdimon.a(rdimon-syscalls.o)
 .ARM.attributes
                0x0000000000000000       0x34 /opt/homebrew/Cellar/arm-gcc-bin@8/8-2019-q3-update_1/bin/../lib/gcc/arm-none-eabi/8.3.1/../../../../arm-none-eabi/lib/thumb/v7e-m+fp/hard/librdimon.a(rdimon-syscalls.o)
 .text          0x0000000000000000        0x0 /opt/homebrew/Cellar/arm-gcc-bin@8/8-2019-q3-update_1/bin/../lib/gcc/arm-none-eabi/8.3.1/../../../../arm-none-eabi/lib/thumb/v7e-m+fp/hard/librdimon.a(rdimon-_exit.o)
 .data          0x0000000000000000        0x0 /opt/homebrew/Cellar/arm-gcc-bin@8/8-2019-q3-update_1/bin/../lib/gcc/arm-none-eabi/8.3.1/../../../../arm-none-eabi/lib/thumb/v7e-m+fp/hard/librdimon.a(rdimon-_exit.o)
 .bss           0x0000000000000000        0x0 /opt/homebrew/Cellar/arm-gcc-bin@8/8-2019-q3-update_1/bin/../lib/gcc/arm-none-eabi/8.3.1/../../../../arm-none-eabi/lib/thumb/v7e-m+fp/hard/librdimon.a(rdimon-_exit.o)
 .text._exit    0x0000000000000000       0x14 /opt/homebrew/Cellar/arm-gcc-bin@8/8-2019-q3-update_1/bin/../lib/gcc/arm-none-eabi/8.3.1/../../../../arm-none-eabi/lib/thumb/v7e-m+fp/hard/librdimon.a(rdimon-_exit.o)
 .debug_frame   0x0000000000000000       0x28 /opt/homebrew/Cellar/arm-gcc-bin@8/8-2019-q3-update_1/bin/../lib/gcc/arm-none-eabi/8.3.1/../../../../arm-none-eabi/lib/thumb/v7e-m+fp/hard/librdimon.a(rdimon-_exit.o)
 .ARM.attributes
                0x0000000000000000       0x34 /opt/homebrew/Cellar/arm-gcc-bin@8/8-2019-q3-update_1/bin/../lib/gcc/arm-none-eabi/8.3.1/../../../../arm-none-eabi/lib/thumb/v7e-m+fp/hard/librdimon.a(rdimon-_exit.o)
 .text          0x0000000000000000        0x0 /opt/homebrew/Cellar/arm-gcc-bin@8/8-2019-q3-update_1/bin/../lib/gcc/arm-none-eabi/8.3.1/../../../../arm-none-eabi/lib/thumb/v7e-m+fp/hard/librdimon.a(rdimon-_kill.o)
 .data          0x0000000000000000        0x0 /opt/homebrew/Cellar/arm-gcc-bin@8/8-2019-q3-update_1/bin/../lib/gcc/arm-none-eabi/8.3.1/../../../../arm-none-eabi/lib/thumb/v7e-m+fp/hard/librdimon.a(rdimon-_kill.o)
 .bss           0x0000000000000000        0x0 /opt/homebrew/Cellar/arm-gcc-bin@8/8-2019-q3-update_1/bin/../lib/gcc/arm-none-eabi/8.3.1/../../../../arm-none-eabi/lib/thumb/v7e-m+fp/hard/librdimon.a(rdimon-_kill.o)
 .text._kill_shared
                0x0000000000000000       0x30 /opt/homebrew/Cellar/arm-gcc-bin@8/8-2019-q3-update_1/bin/../lib/gcc/arm-none-eabi/8.3.1/../../../../arm-none-eabi/lib/thumb/v7e-m+fp/hard/librdimon.a(rdimon-_kill.o)
 .text._kill    0x0000000000000000       0x1c /opt/homebrew/Cellar/arm-gcc-bin@8/8-2019-q3-update_1/bin/../lib/gcc/arm-none-eabi/8.3.1/../../../../arm-none-eabi/lib/thumb/v7e-m+fp/hard/librdimon.a(rdimon-_kill.o)
 .debug_frame   0x0000000000000000       0x40 /opt/homebrew/Cellar/arm-gcc-bin@8/8-2019-q3-update_1/bin/../lib/gcc/arm-none-eabi/8.3.1/../../../../arm-none-eabi/lib/thumb/v7e-m+fp/hard/librdimon.a(rdimon-_kill.o)
 .ARM.attributes
                0x0000000000000000       0x34 /opt/homebrew/Cellar/arm-gcc-bin@8/8-2019-q3-update_1/bin/../lib/gcc/arm-none-eabi/8.3.1/../../../../arm-none-eabi/lib/thumb/v7e-m+fp/hard/librdimon.a(rdimon-_kill.o)
 .text          0x0000000000000000        0x0 /opt/homebrew/Cellar/arm-gcc-bin@8/8-2019-q3-update_1/bin/../lib/gcc/arm-none-eabi/8.3.1/../../../../arm-none-eabi/lib/thumb/v7e-m+fp/hard/libc.a(lib_a-errno.o)
 .data          0x0000000000000000        0x0 /opt/homebrew/Cellar/arm-gcc-bin@8/8-2019-q3-update_1/bin/../lib/gcc/arm-none-eabi/8.3.1/../../../../arm-none-eabi/lib/thumb/v7e-m+fp/hard/libc.a(lib_a-errno.o)
 .bss           0x0000000000000000        0x0 /opt/homebrew/Cellar/arm-gcc-bin@8/8-2019-q3-update_1/bin/../lib/gcc/arm-none-eabi/8.3.1/../../../../arm-none-eabi/lib/thumb/v7e-m+fp/hard/libc.a(lib_a-errno.o)
 .text.__errno  0x0000000000000000        0xc /opt/homebrew/Cellar/arm-gcc-bin@8/8-2019-q3-update_1/bin/../lib/gcc/arm-none-eabi/8.3.1/../../../../arm-none-eabi/lib/thumb/v7e-m+fp/hard/libc.a(lib_a-errno.o)
 .debug_frame   0x0000000000000000       0x20 /opt/homebrew/Cellar/arm-gcc-bin@8/8-2019-q3-update_1/bin/../lib/gcc/arm-none-eabi/8.3.1/../../../../arm-none-eabi/lib/thumb/v7e-m+fp/hard/libc.a(lib_a-errno.o)
 .ARM.attributes
                0x0000000000000000       0x34 /opt/homebrew/Cellar/arm-gcc-bin@8/8-2019-q3-update_1/bin/../lib/gcc/arm-none-eabi/8.3.1/../../../../arm-none-eabi/lib/thumb/v7e-m+fp/hard/libc.a(lib_a-errno.o)
 .text          0x0000000000000000        0x0 /opt/homebrew/Cellar/arm-gcc-bin@8/8-2019-q3-update_1/bin/../lib/gcc/arm-none-eabi/8.3.1/../../../../arm-none-eabi/lib/thumb/v7e-m+fp/hard/libc.a(lib_a-findfp.o)
 .data          0x0000000000000000        0x0 /opt/homebrew/Cellar/arm-gcc-bin@8/8-2019-q3-update_1/bin/../lib/gcc/arm-none-eabi/8.3.1/../../../../arm-none-eabi/lib/thumb/v7e-m+fp/hard/libc.a(lib_a-findfp.o)
 .bss           0x0000000000000000        0x0 /opt/homebrew/Cellar/arm-gcc-bin@8/8-2019-q3-update_1/bin/../lib/gcc/arm-none-eabi/8.3.1/../../../../arm-none-eabi/lib/thumb/v7e-m+fp/hard/libc.a(lib_a-findfp.o)
 .text.std      0x0000000000000000       0x50 /opt/homebrew/Cellar/arm-gcc-bin@8/8-2019-q3-update_1/bin/../lib/gcc/arm-none-eabi/8.3.1/../../../../arm-none-eabi/lib/thumb/v7e-m+fp/hard/libc.a(lib_a-findfp.o)
 .text._cleanup_r
                0x0000000000000000        0xc /opt/homebrew/Cellar/arm-gcc-bin@8/8-2019-q3-update_1/bin/../lib/gcc/arm-none-eabi/8.3.1/../../../../arm-none-eabi/lib/thumb/v7e-m+fp/hard/libc.a(lib_a-findfp.o)
 .text.__fp_lock
                0x0000000000000000       0x1c /opt/homebrew/Cellar/arm-gcc-bin@8/8-2019-q3-update_1/bin/../lib/gcc/arm-none-eabi/8.3.1/../../../../arm-none-eabi/lib/thumb/v7e-m+fp/hard/libc.a(lib_a-findfp.o)
 .text.__fp_unlock
                0x0000000000000000       0x1c /opt/homebrew/Cellar/arm-gcc-bin@8/8-2019-q3-update_1/bin/../lib/gcc/arm-none-eabi/8.3.1/../../../../arm-none-eabi/lib/thumb/v7e-m+fp/hard/libc.a(lib_a-findfp.o)
 .text.__sfmoreglue
                0x0000000000000000       0x30 /opt/homebrew/Cellar/arm-gcc-bin@8/8-2019-q3-update_1/bin/../lib/gcc/arm-none-eabi/8.3.1/../../../../arm-none-eabi/lib/thumb/v7e-m+fp/hard/libc.a(lib_a-findfp.o)
 .text._cleanup
                0x0000000000000000       0x14 /opt/homebrew/Cellar/arm-gcc-bin@8/8-2019-q3-update_1/bin/../lib/gcc/arm-none-eabi/8.3.1/../../../../arm-none-eabi/lib/thumb/v7e-m+fp/hard/libc.a(lib_a-findfp.o)
 .text.__sinit  0x0000000000000000       0x54 /opt/homebrew/Cellar/arm-gcc-bin@8/8-2019-q3-update_1/bin/../lib/gcc/arm-none-eabi/8.3.1/../../../../arm-none-eabi/lib/thumb/v7e-m+fp/hard/libc.a(lib_a-findfp.o)
 .text.__sfp    0x0000000000000000       0xa4 /opt/homebrew/Cellar/arm-gcc-bin@8/8-2019-q3-update_1/bin/../lib/gcc/arm-none-eabi/8.3.1/../../../../arm-none-eabi/lib/thumb/v7e-m+fp/hard/libc.a(lib_a-findfp.o)
 .text.__sfp_lock_acquire
                0x0000000000000000        0xc /opt/homebrew/Cellar/arm-gcc-bin@8/8-2019-q3-update_1/bin/../lib/gcc/arm-none-eabi/8.3.1/../../../../arm-none-eabi/lib/thumb/v7e-m+fp/hard/libc.a(lib_a-findfp.o)
 .text.__sfp_lock_release
                0x0000000000000000        0xc /opt/homebrew/Cellar/arm-gcc-bin@8/8-2019-q3-update_1/bin/../lib/gcc/arm-none-eabi/8.3.1/../../../../arm-none-eabi/lib/thumb/v7e-m+fp/hard/libc.a(lib_a-findfp.o)
 .text.__sinit_lock_acquire
                0x0000000000000000        0xc /opt/homebrew/Cellar/arm-gcc-bin@8/8-2019-q3-update_1/bin/../lib/gcc/arm-none-eabi/8.3.1/../../../../arm-none-eabi/lib/thumb/v7e-m+fp/hard/libc.a(lib_a-findfp.o)
 .text.__sinit_lock_release
                0x0000000000000000        0xc /opt/homebrew/Cellar/arm-gcc-bin@8/8-2019-q3-update_1/bin/../lib/gcc/arm-none-eabi/8.3.1/../../../../arm-none-eabi/lib/thumb/v7e-m+fp/hard/libc.a(lib_a-findfp.o)
 .text.__fp_lock_all
                0x0000000000000000       0x24 /opt/homebrew/Cellar/arm-gcc-bin@8/8-2019-q3-update_1/bin/../lib/gcc/arm-none-eabi/8.3.1/../../../../arm-none-eabi/lib/thumb/v7e-m+fp/hard/libc.a(lib_a-findfp.o)
 .text.__fp_unlock_all
                0x0000000000000000       0x24 /opt/homebrew/Cellar/arm-gcc-bin@8/8-2019-q3-update_1/bin/../lib/gcc/arm-none-eabi/8.3.1/../../../../arm-none-eabi/lib/thumb/v7e-m+fp/hard/libc.a(lib_a-findfp.o)
 .debug_frame   0x0000000000000000      0x148 /opt/homebrew/Cellar/arm-gcc-bin@8/8-2019-q3-update_1/bin/../lib/gcc/arm-none-eabi/8.3.1/../../../../arm-none-eabi/lib/thumb/v7e-m+fp/hard/libc.a(lib_a-findfp.o)
 .ARM.attributes
                0x0000000000000000       0x34 /opt/homebrew/Cellar/arm-gcc-bin@8/8-2019-q3-update_1/bin/../lib/gcc/arm-none-eabi/8.3.1/../../../../arm-none-eabi/lib/thumb/v7e-m+fp/hard/libc.a(lib_a-findfp.o)
 .text          0x0000000000000000        0x0 /opt/homebrew/Cellar/arm-gcc-bin@8/8-2019-q3-update_1/bin/../lib/gcc/arm-none-eabi/8.3.1/../../../../arm-none-eabi/lib/thumb/v7e-m+fp/hard/libc.a(lib_a-fwalk.o)
 .data          0x0000000000000000        0x0 /opt/homebrew/Cellar/arm-gcc-bin@8/8-2019-q3-update_1/bin/../lib/gcc/arm-none-eabi/8.3.1/../../../../arm-none-eabi/lib/thumb/v7e-m+fp/hard/libc.a(lib_a-fwalk.o)
 .bss           0x0000000000000000        0x0 /opt/homebrew/Cellar/arm-gcc-bin@8/8-2019-q3-update_1/bin/../lib/gcc/arm-none-eabi/8.3.1/../../../../arm-none-eabi/lib/thumb/v7e-m+fp/hard/libc.a(lib_a-fwalk.o)
 .text._fwalk   0x0000000000000000       0x4c /opt/homebrew/Cellar/arm-gcc-bin@8/8-2019-q3-update_1/bin/../lib/gcc/arm-none-eabi/8.3.1/../../../../arm-none-eabi/lib/thumb/v7e-m+fp/hard/libc.a(lib_a-fwalk.o)
 .text._fwalk_reent
                0x0000000000000000       0x54 /opt/homebrew/Cellar/arm-gcc-bin@8/8-2019-q3-update_1/bin/../lib/gcc/arm-none-eabi/8.3.1/../../../../arm-none-eabi/lib/thumb/v7e-m+fp/hard/libc.a(lib_a-fwalk.o)
 .debug_frame   0x0000000000000000       0x54 /opt/homebrew/Cellar/arm-gcc-bin@8/8-2019-q3-update_1/bin/../lib/gcc/arm-none-eabi/8.3.1/../../../../arm-none-eabi/lib/thumb/v7e-m+fp/hard/libc.a(lib_a-fwalk.o)
 .ARM.attributes
                0x0000000000000000       0x34 /opt/homebrew/Cellar/arm-gcc-bin@8/8-2019-q3-update_1/bin/../lib/gcc/arm-none-eabi/8.3.1/../../../../arm-none-eabi/lib/thumb/v7e-m+fp/hard/libc.a(lib_a-fwalk.o)
 .text          0x0000000000000000        0x0 /opt/homebrew/Cellar/arm-gcc-bin@8/8-2019-q3-update_1/bin/../lib/gcc/arm-none-eabi/8.3.1/../../../../arm-none-eabi/lib/thumb/v7e-m+fp/hard/libc.a(lib_a-mallocr.o)
 .data          0x0000000000000000        0x0 /opt/homebrew/Cellar/arm-gcc-bin@8/8-2019-q3-update_1/bin/../lib/gcc/arm-none-eabi/8.3.1/../../../../arm-none-eabi/lib/thumb/v7e-m+fp/hard/libc.a(lib_a-mallocr.o)
 .bss           0x0000000000000000        0x0 /opt/homebrew/Cellar/arm-gcc-bin@8/8-2019-q3-update_1/bin/../lib/gcc/arm-none-eabi/8.3.1/../../../../arm-none-eabi/lib/thumb/v7e-m+fp/hard/libc.a(lib_a-mallocr.o)
 .text._malloc_r
                0x0000000000000000      0x570 /opt/homebrew/Cellar/arm-gcc-bin@8/8-2019-q3-update_1/bin/../lib/gcc/arm-none-eabi/8.3.1/../../../../arm-none-eabi/lib/thumb/v7e-m+fp/hard/libc.a(lib_a-mallocr.o)
 .bss.__malloc_current_mallinfo
                0x0000000000000000       0x28 /opt/homebrew/Cellar/arm-gcc-bin@8/8-2019-q3-update_1/bin/../lib/gcc/arm-none-eabi/8.3.1/../../../../arm-none-eabi/lib/thumb/v7e-m+fp/hard/libc.a(lib_a-mallocr.o)
 .bss.__malloc_max_sbrked_mem
                0x0000000000000000        0x4 /opt/homebrew/Cellar/arm-gcc-bin@8/8-2019-q3-update_1/bin/../lib/gcc/arm-none-eabi/8.3.1/../../../../arm-none-eabi/lib/thumb/v7e-m+fp/hard/libc.a(lib_a-mallocr.o)
 .bss.__malloc_max_total_mem
                0x0000000000000000        0x4 /opt/homebrew/Cellar/arm-gcc-bin@8/8-2019-q3-update_1/bin/../lib/gcc/arm-none-eabi/8.3.1/../../../../arm-none-eabi/lib/thumb/v7e-m+fp/hard/libc.a(lib_a-mallocr.o)
 .bss.__malloc_top_pad
                0x0000000000000000        0x4 /opt/homebrew/Cellar/arm-gcc-bin@8/8-2019-q3-update_1/bin/../lib/gcc/arm-none-eabi/8.3.1/../../../../arm-none-eabi/lib/thumb/v7e-m+fp/hard/libc.a(lib_a-mallocr.o)
 .data.__malloc_av_
                0x0000000000000000      0x408 /opt/homebrew/Cellar/arm-gcc-bin@8/8-2019-q3-update_1/bin/../lib/gcc/arm-none-eabi/8.3.1/../../../../arm-none-eabi/lib/thumb/v7e-m+fp/hard/libc.a(lib_a-mallocr.o)
 .data.__malloc_sbrk_base
                0x0000000000000000        0x4 /opt/homebrew/Cellar/arm-gcc-bin@8/8-2019-q3-update_1/bin/../lib/gcc/arm-none-eabi/8.3.1/../../../../arm-none-eabi/lib/thumb/v7e-m+fp/hard/libc.a(lib_a-mallocr.o)
 .data.__malloc_trim_threshold
                0x0000000000000000        0x4 /opt/homebrew/Cellar/arm-gcc-bin@8/8-2019-q3-update_1/bin/../lib/gcc/arm-none-eabi/8.3.1/../../../../arm-none-eabi/lib/thumb/v7e-m+fp/hard/libc.a(lib_a-mallocr.o)
 .debug_frame   0x0000000000000000       0x4c /opt/homebrew/Cellar/arm-gcc-bin@8/8-2019-q3-update_1/bin/../lib/gcc/arm-none-eabi/8.3.1/../../../../arm-none-eabi/lib/thumb/v7e-m+fp/hard/libc.a(lib_a-mallocr.o)
 .ARM.attributes
                0x0000000000000000       0x34 /opt/homebrew/Cellar/arm-gcc-bin@8/8-2019-q3-update_1/bin/../lib/gcc/arm-none-eabi/8.3.1/../../../../arm-none-eabi/lib/thumb/v7e-m+fp/hard/libc.a(lib_a-mallocr.o)
 .text          0x0000000000000000        0x0 /opt/homebrew/Cellar/arm-gcc-bin@8/8-2019-q3-update_1/bin/../lib/gcc/arm-none-eabi/8.3.1/../../../../arm-none-eabi/lib/thumb/v7e-m+fp/hard/libc.a(lib_a-mlock.o)
 .data          0x0000000000000000        0x0 /opt/homebrew/Cellar/arm-gcc-bin@8/8-2019-q3-update_1/bin/../lib/gcc/arm-none-eabi/8.3.1/../../../../arm-none-eabi/lib/thumb/v7e-m+fp/hard/libc.a(lib_a-mlock.o)
 .bss           0x0000000000000000        0x0 /opt/homebrew/Cellar/arm-gcc-bin@8/8-2019-q3-update_1/bin/../lib/gcc/arm-none-eabi/8.3.1/../../../../arm-none-eabi/lib/thumb/v7e-m+fp/hard/libc.a(lib_a-mlock.o)
 .text.__malloc_lock
                0x0000000000000000        0xc /opt/homebrew/Cellar/arm-gcc-bin@8/8-2019-q3-update_1/bin/../lib/gcc/arm-none-eabi/8.3.1/../../../../arm-none-eabi/lib/thumb/v7e-m+fp/hard/libc.a(lib_a-mlock.o)
 .text.__malloc_unlock
                0x0000000000000000        0xc /opt/homebrew/Cellar/arm-gcc-bin@8/8-2019-q3-update_1/bin/../lib/gcc/arm-none-eabi/8.3.1/../../../../arm-none-eabi/lib/thumb/v7e-m+fp/hard/libc.a(lib_a-mlock.o)
 .debug_frame   0x0000000000000000       0x30 /opt/homebrew/Cellar/arm-gcc-bin@8/8-2019-q3-update_1/bin/../lib/gcc/arm-none-eabi/8.3.1/../../../../arm-none-eabi/lib/thumb/v7e-m+fp/hard/libc.a(lib_a-mlock.o)
 .ARM.attributes
                0x0000000000000000       0x34 /opt/homebrew/Cellar/arm-gcc-bin@8/8-2019-q3-update_1/bin/../lib/gcc/arm-none-eabi/8.3.1/../../../../arm-none-eabi/lib/thumb/v7e-m+fp/hard/libc.a(lib_a-mlock.o)
 .text          0x0000000000000000        0x0 /opt/homebrew/Cellar/arm-gcc-bin@8/8-2019-q3-update_1/bin/../lib/gcc/arm-none-eabi/8.3.1/../../../../arm-none-eabi/lib/thumb/v7e-m+fp/hard/libc.a(lib_a-sbrkr.o)
 .data          0x0000000000000000        0x0 /opt/homebrew/Cellar/arm-gcc-bin@8/8-2019-q3-update_1/bin/../lib/gcc/arm-none-eabi/8.3.1/../../../../arm-none-eabi/lib/thumb/v7e-m+fp/hard/libc.a(lib_a-sbrkr.o)
 .bss           0x0000000000000000        0x0 /opt/homebrew/Cellar/arm-gcc-bin@8/8-2019-q3-update_1/bin/../lib/gcc/arm-none-eabi/8.3.1/../../../../arm-none-eabi/lib/thumb/v7e-m+fp/hard/libc.a(lib_a-sbrkr.o)
 .text._sbrk_r  0x0000000000000000       0x24 /opt/homebrew/Cellar/arm-gcc-bin@8/8-2019-q3-update_1/bin/../lib/gcc/arm-none-eabi/8.3.1/../../../../arm-none-eabi/lib/thumb/v7e-m+fp/hard/libc.a(lib_a-sbrkr.o)
 .debug_frame   0x0000000000000000       0x2c /opt/homebrew/Cellar/arm-gcc-bin@8/8-2019-q3-update_1/bin/../lib/gcc/arm-none-eabi/8.3.1/../../../../arm-none-eabi/lib/thumb/v7e-m+fp/hard/libc.a(lib_a-sbrkr.o)
 .ARM.attributes
                0x0000000000000000       0x34 /opt/homebrew/Cellar/arm-gcc-bin@8/8-2019-q3-update_1/bin/../lib/gcc/arm-none-eabi/8.3.1/../../../../arm-none-eabi/lib/thumb/v7e-m+fp/hard/libc.a(lib_a-sbrkr.o)
 .text          0x0000000000000000        0x0 /opt/homebrew/Cellar/arm-gcc-bin@8/8-2019-q3-update_1/bin/../lib/gcc/arm-none-eabi/8.3.1/../../../../arm-none-eabi/lib/thumb/v7e-m+fp/hard/libc.a(lib_a-stdio.o)
 .data          0x0000000000000000        0x0 /opt/homebrew/Cellar/arm-gcc-bin@8/8-2019-q3-update_1/bin/../lib/gcc/arm-none-eabi/8.3.1/../../../../arm-none-eabi/lib/thumb/v7e-m+fp/hard/libc.a(lib_a-stdio.o)
 .bss           0x0000000000000000        0x0 /opt/homebrew/Cellar/arm-gcc-bin@8/8-2019-q3-update_1/bin/../lib/gcc/arm-none-eabi/8.3.1/../../../../arm-none-eabi/lib/thumb/v7e-m+fp/hard/libc.a(lib_a-stdio.o)
 .text.__sread  0x0000000000000000       0x24 /opt/homebrew/Cellar/arm-gcc-bin@8/8-2019-q3-update_1/bin/../lib/gcc/arm-none-eabi/8.3.1/../../../../arm-none-eabi/lib/thumb/v7e-m+fp/hard/libc.a(lib_a-stdio.o)
 .text.__seofread
                0x0000000000000000        0x4 /opt/homebrew/Cellar/arm-gcc-bin@8/8-2019-q3-update_1/bin/../lib/gcc/arm-none-eabi/8.3.1/../../../../arm-none-eabi/lib/thumb/v7e-m+fp/hard/libc.a(lib_a-stdio.o)
 .text.__swrite
                0x0000000000000000       0x40 /opt/homebrew/Cellar/arm-gcc-bin@8/8-2019-q3-update_1/bin/../lib/gcc/arm-none-eabi/8.3.1/../../../../arm-none-eabi/lib/thumb/v7e-m+fp/hard/libc.a(lib_a-stdio.o)
 .text.__sseek  0x0000000000000000       0x20 /opt/homebrew/Cellar/arm-gcc-bin@8/8-2019-q3-update_1/bin/../lib/gcc/arm-none-eabi/8.3.1/../../../../arm-none-eabi/lib/thumb/v7e-m+fp/hard/libc.a(lib_a-stdio.o)
 .text.__sclose
                0x0000000000000000        0x8 /opt/homebrew/Cellar/arm-gcc-bin@8/8-2019-q3-update_1/bin/../lib/gcc/arm-none-eabi/8.3.1/../../../../arm-none-eabi/lib/thumb/v7e-m+fp/hard/libc.a(lib_a-stdio.o)
 .debug_frame   0x0000000000000000       0x8c /opt/homebrew/Cellar/arm-gcc-bin@8/8-2019-q3-update_1/bin/../lib/gcc/arm-none-eabi/8.3.1/../../../../arm-none-eabi/lib/thumb/v7e-m+fp/hard/libc.a(lib_a-stdio.o)
 .ARM.attributes
                0x0000000000000000       0x34 /opt/homebrew/Cellar/arm-gcc-bin@8/8-2019-q3-update_1/bin/../lib/gcc/arm-none-eabi/8.3.1/../../../../arm-none-eabi/lib/thumb/v7e-m+fp/hard/libc.a(lib_a-stdio.o)
 .text          0x0000000000000000       0xdc /opt/homebrew/Cellar/arm-gcc-bin@8/8-2019-q3-update_1/bin/../lib/gcc/arm-none-eabi/8.3.1/../../../../arm-none-eabi/lib/thumb/v7e-m+fp/hard/libc.a(lib_a-strlen.o)
 .data          0x0000000000000000        0x0 /opt/homebrew/Cellar/arm-gcc-bin@8/8-2019-q3-update_1/bin/../lib/gcc/arm-none-eabi/8.3.1/../../../../arm-none-eabi/lib/thumb/v7e-m+fp/hard/libc.a(lib_a-strlen.o)
 .bss           0x0000000000000000        0x0 /opt/homebrew/Cellar/arm-gcc-bin@8/8-2019-q3-update_1/bin/../lib/gcc/arm-none-eabi/8.3.1/../../../../arm-none-eabi/lib/thumb/v7e-m+fp/hard/libc.a(lib_a-strlen.o)
 .ARM.attributes
                0x0000000000000000       0x1c /opt/homebrew/Cellar/arm-gcc-bin@8/8-2019-q3-update_1/bin/../lib/gcc/arm-none-eabi/8.3.1/../../../../arm-none-eabi/lib/thumb/v7e-m+fp/hard/libc.a(lib_a-strlen.o)
 .text          0x0000000000000000        0x0 /opt/homebrew/Cellar/arm-gcc-bin@8/8-2019-q3-update_1/bin/../lib/gcc/arm-none-eabi/8.3.1/../../../../arm-none-eabi/lib/thumb/v7e-m+fp/hard/libc.a(lib_a-writer.o)
 .data          0x0000000000000000        0x0 /opt/homebrew/Cellar/arm-gcc-bin@8/8-2019-q3-update_1/bin/../lib/gcc/arm-none-eabi/8.3.1/../../../../arm-none-eabi/lib/thumb/v7e-m+fp/hard/libc.a(lib_a-writer.o)
 .bss           0x0000000000000000        0x0 /opt/homebrew/Cellar/arm-gcc-bin@8/8-2019-q3-update_1/bin/../lib/gcc/arm-none-eabi/8.3.1/../../../../arm-none-eabi/lib/thumb/v7e-m+fp/hard/libc.a(lib_a-writer.o)
 .text._write_r
                0x0000000000000000       0x2c /opt/homebrew/Cellar/arm-gcc-bin@8/8-2019-q3-update_1/bin/../lib/gcc/arm-none-eabi/8.3.1/../../../../arm-none-eabi/lib/thumb/v7e-m+fp/hard/libc.a(lib_a-writer.o)
 .debug_frame   0x0000000000000000       0x2c /opt/homebrew/Cellar/arm-gcc-bin@8/8-2019-q3-update_1/bin/../lib/gcc/arm-none-eabi/8.3.1/../../../../arm-none-eabi/lib/thumb/v7e-m+fp/hard/libc.a(lib_a-writer.o)
 .ARM.attributes
                0x0000000000000000       0x34 /opt/homebrew/Cellar/arm-gcc-bin@8/8-2019-q3-update_1/bin/../lib/gcc/arm-none-eabi/8.3.1/../../../../arm-none-eabi/lib/thumb/v7e-m+fp/hard/libc.a(lib_a-writer.o)
 .text          0x0000000000000000        0x0 /opt/homebrew/Cellar/arm-gcc-bin@8/8-2019-q3-update_1/bin/../lib/gcc/arm-none-eabi/8.3.1/../../../../arm-none-eabi/lib/thumb/v7e-m+fp/hard/libc.a(lib_a-closer.o)
 .data          0x0000000000000000        0x0 /opt/homebrew/Cellar/arm-gcc-bin@8/8-2019-q3-update_1/bin/../lib/gcc/arm-none-eabi/8.3.1/../../../../arm-none-eabi/lib/thumb/v7e-m+fp/hard/libc.a(lib_a-closer.o)
 .bss           0x0000000000000000        0x0 /opt/homebrew/Cellar/arm-gcc-bin@8/8-2019-q3-update_1/bin/../lib/gcc/arm-none-eabi/8.3.1/../../../../arm-none-eabi/lib/thumb/v7e-m+fp/hard/libc.a(lib_a-closer.o)
 .text._close_r
                0x0000000000000000       0x24 /opt/homebrew/Cellar/arm-gcc-bin@8/8-2019-q3-update_1/bin/../lib/gcc/arm-none-eabi/8.3.1/../../../../arm-none-eabi/lib/thumb/v7e-m+fp/hard/libc.a(lib_a-closer.o)
 .debug_frame   0x0000000000000000       0x2c /opt/homebrew/Cellar/arm-gcc-bin@8/8-2019-q3-update_1/bin/../lib/gcc/arm-none-eabi/8.3.1/../../../../arm-none-eabi/lib/thumb/v7e-m+fp/hard/libc.a(lib_a-closer.o)
 .ARM.attributes
                0x0000000000000000       0x34 /opt/homebrew/Cellar/arm-gcc-bin@8/8-2019-q3-update_1/bin/../lib/gcc/arm-none-eabi/8.3.1/../../../../arm-none-eabi/lib/thumb/v7e-m+fp/hard/libc.a(lib_a-closer.o)
 .text          0x0000000000000000        0x0 /opt/homebrew/Cellar/arm-gcc-bin@8/8-2019-q3-update_1/bin/../lib/gcc/arm-none-eabi/8.3.1/../../../../arm-none-eabi/lib/thumb/v7e-m+fp/hard/libc.a(lib_a-fclose.o)
 .data          0x0000000000000000        0x0 /opt/homebrew/Cellar/arm-gcc-bin@8/8-2019-q3-update_1/bin/../lib/gcc/arm-none-eabi/8.3.1/../../../../arm-none-eabi/lib/thumb/v7e-m+fp/hard/libc.a(lib_a-fclose.o)
 .bss           0x0000000000000000        0x0 /opt/homebrew/Cellar/arm-gcc-bin@8/8-2019-q3-update_1/bin/../lib/gcc/arm-none-eabi/8.3.1/../../../../arm-none-eabi/lib/thumb/v7e-m+fp/hard/libc.a(lib_a-fclose.o)
 .text._fclose_r
                0x0000000000000000       0xd0 /opt/homebrew/Cellar/arm-gcc-bin@8/8-2019-q3-update_1/bin/../lib/gcc/arm-none-eabi/8.3.1/../../../../arm-none-eabi/lib/thumb/v7e-m+fp/hard/libc.a(lib_a-fclose.o)
 .text.fclose   0x0000000000000000       0x10 /opt/homebrew/Cellar/arm-gcc-bin@8/8-2019-q3-update_1/bin/../lib/gcc/arm-none-eabi/8.3.1/../../../../arm-none-eabi/lib/thumb/v7e-m+fp/hard/libc.a(lib_a-fclose.o)
 .debug_frame   0x0000000000000000       0x3c /opt/homebrew/Cellar/arm-gcc-bin@8/8-2019-q3-update_1/bin/../lib/gcc/arm-none-eabi/8.3.1/../../../../arm-none-eabi/lib/thumb/v7e-m+fp/hard/libc.a(lib_a-fclose.o)
 .ARM.attributes
                0x0000000000000000       0x34 /opt/homebrew/Cellar/arm-gcc-bin@8/8-2019-q3-update_1/bin/../lib/gcc/arm-none-eabi/8.3.1/../../../../arm-none-eabi/lib/thumb/v7e-m+fp/hard/libc.a(lib_a-fclose.o)
 .text          0x0000000000000000        0x0 /opt/homebrew/Cellar/arm-gcc-bin@8/8-2019-q3-update_1/bin/../lib/gcc/arm-none-eabi/8.3.1/../../../../arm-none-eabi/lib/thumb/v7e-m+fp/hard/libc.a(lib_a-fflush.o)
 .data          0x0000000000000000        0x0 /opt/homebrew/Cellar/arm-gcc-bin@8/8-2019-q3-update_1/bin/../lib/gcc/arm-none-eabi/8.3.1/../../../../arm-none-eabi/lib/thumb/v7e-m+fp/hard/libc.a(lib_a-fflush.o)
 .bss           0x0000000000000000        0x0 /opt/homebrew/Cellar/arm-gcc-bin@8/8-2019-q3-update_1/bin/../lib/gcc/arm-none-eabi/8.3.1/../../../../arm-none-eabi/lib/thumb/v7e-m+fp/hard/libc.a(lib_a-fflush.o)
 .text.__sflush_r
                0x0000000000000000      0x14c /opt/homebrew/Cellar/arm-gcc-bin@8/8-2019-q3-update_1/bin/../lib/gcc/arm-none-eabi/8.3.1/../../../../arm-none-eabi/lib/thumb/v7e-m+fp/hard/libc.a(lib_a-fflush.o)
 .text._fflush_r
                0x0000000000000000       0x5c /opt/homebrew/Cellar/arm-gcc-bin@8/8-2019-q3-update_1/bin/../lib/gcc/arm-none-eabi/8.3.1/../../../../arm-none-eabi/lib/thumb/v7e-m+fp/hard/libc.a(lib_a-fflush.o)
 .text.fflush   0x0000000000000000       0x24 /opt/homebrew/Cellar/arm-gcc-bin@8/8-2019-q3-update_1/bin/../lib/gcc/arm-none-eabi/8.3.1/../../../../arm-none-eabi/lib/thumb/v7e-m+fp/hard/libc.a(lib_a-fflush.o)
 .debug_frame   0x0000000000000000       0x5c /opt/homebrew/Cellar/arm-gcc-bin@8/8-2019-q3-update_1/bin/../lib/gcc/arm-none-eabi/8.3.1/../../../../arm-none-eabi/lib/thumb/v7e-m+fp/hard/libc.a(lib_a-fflush.o)
 .ARM.attributes
                0x0000000000000000       0x34 /opt/homebrew/Cellar/arm-gcc-bin@8/8-2019-q3-update_1/bin/../lib/gcc/arm-none-eabi/8.3.1/../../../../arm-none-eabi/lib/thumb/v7e-m+fp/hard/libc.a(lib_a-fflush.o)
 .text          0x0000000000000000        0x0 /opt/homebrew/Cellar/arm-gcc-bin@8/8-2019-q3-update_1/bin/../lib/gcc/arm-none-eabi/8.3.1/../../../../arm-none-eabi/lib/thumb/v7e-m+fp/hard/libc.a(lib_a-freer.o)
 .data          0x0000000000000000        0x0 /opt/homebrew/Cellar/arm-gcc-bin@8/8-2019-q3-update_1/bin/../lib/gcc/arm-none-eabi/8.3.1/../../../../arm-none-eabi/lib/thumb/v7e-m+fp/hard/libc.a(lib_a-freer.o)
 .bss           0x0000000000000000        0x0 /opt/homebrew/Cellar/arm-gcc-bin@8/8-2019-q3-update_1/bin/../lib/gcc/arm-none-eabi/8.3.1/../../../../arm-none-eabi/lib/thumb/v7e-m+fp/hard/libc.a(lib_a-freer.o)
 .text._malloc_trim_r
                0x0000000000000000       0xa0 /opt/homebrew/Cellar/arm-gcc-bin@8/8-2019-q3-update_1/bin/../lib/gcc/arm-none-eabi/8.3.1/../../../../arm-none-eabi/lib/thumb/v7e-m+fp/hard/libc.a(lib_a-freer.o)
 .text._free_r  0x0000000000000000      0x1f4 /opt/homebrew/Cellar/arm-gcc-bin@8/8-2019-q3-update_1/bin/../lib/gcc/arm-none-eabi/8.3.1/../../../../arm-none-eabi/lib/thumb/v7e-m+fp/hard/libc.a(lib_a-freer.o)
 .debug_frame   0x0000000000000000       0x8c /opt/homebrew/Cellar/arm-gcc-bin@8/8-2019-q3-update_1/bin/../lib/gcc/arm-none-eabi/8.3.1/../../../../arm-none-eabi/lib/thumb/v7e-m+fp/hard/libc.a(lib_a-freer.o)
 .ARM.attributes
                0x0000000000000000       0x34 /opt/homebrew/Cellar/arm-gcc-bin@8/8-2019-q3-update_1/bin/../lib/gcc/arm-none-eabi/8.3.1/../../../../arm-none-eabi/lib/thumb/v7e-m+fp/hard/libc.a(lib_a-freer.o)
 .text          0x0000000000000000        0x0 /opt/homebrew/Cellar/arm-gcc-bin@8/8-2019-q3-update_1/bin/../lib/gcc/arm-none-eabi/8.3.1/../../../../arm-none-eabi/lib/thumb/v7e-m+fp/hard/libc.a(lib_a-lseekr.o)
 .data          0x0000000000000000        0x0 /opt/homebrew/Cellar/arm-gcc-bin@8/8-2019-q3-update_1/bin/../lib/gcc/arm-none-eabi/8.3.1/../../../../arm-none-eabi/lib/thumb/v7e-m+fp/hard/libc.a(lib_a-lseekr.o)
 .bss           0x0000000000000000        0x0 /opt/homebrew/Cellar/arm-gcc-bin@8/8-2019-q3-update_1/bin/../lib/gcc/arm-none-eabi/8.3.1/../../../../arm-none-eabi/lib/thumb/v7e-m+fp/hard/libc.a(lib_a-lseekr.o)
 .text._lseek_r
                0x0000000000000000       0x2c /opt/homebrew/Cellar/arm-gcc-bin@8/8-2019-q3-update_1/bin/../lib/gcc/arm-none-eabi/8.3.1/../../../../arm-none-eabi/lib/thumb/v7e-m+fp/hard/libc.a(lib_a-lseekr.o)
 .debug_frame   0x0000000000000000       0x2c /opt/homebrew/Cellar/arm-gcc-bin@8/8-2019-q3-update_1/bin/../lib/gcc/arm-none-eabi/8.3.1/../../../../arm-none-eabi/lib/thumb/v7e-m+fp/hard/libc.a(lib_a-lseekr.o)
 .ARM.attributes
                0x0000000000000000       0x34 /opt/homebrew/Cellar/arm-gcc-bin@8/8-2019-q3-update_1/bin/../lib/gcc/arm-none-eabi/8.3.1/../../../../arm-none-eabi/lib/thumb/v7e-m+fp/hard/libc.a(lib_a-lseekr.o)
 .text          0x0000000000000000        0x0 /opt/homebrew/Cellar/arm-gcc-bin@8/8-2019-q3-update_1/bin/../lib/gcc/arm-none-eabi/8.3.1/../../../../arm-none-eabi/lib/thumb/v7e-m+fp/hard/libc.a(lib_a-readr.o)
 .data          0x0000000000000000        0x0 /opt/homebrew/Cellar/arm-gcc-bin@8/8-2019-q3-update_1/bin/../lib/gcc/arm-none-eabi/8.3.1/../../../../arm-none-eabi/lib/thumb/v7e-m+fp/hard/libc.a(lib_a-readr.o)
 .bss           0x0000000000000000        0x0 /opt/homebrew/Cellar/arm-gcc-bin@8/8-2019-q3-update_1/bin/../lib/gcc/arm-none-eabi/8.3.1/../../../../arm-none-eabi/lib/thumb/v7e-m+fp/hard/libc.a(lib_a-readr.o)
 .text._read_r  0x0000000000000000       0x2c /opt/homebrew/Cellar/arm-gcc-bin@8/8-2019-q3-update_1/bin/../lib/gcc/arm-none-eabi/8.3.1/../../../../arm-none-eabi/lib/thumb/v7e-m+fp/hard/libc.a(lib_a-readr.o)
 .debug_frame   0x0000000000000000       0x2c /opt/homebrew/Cellar/arm-gcc-bin@8/8-2019-q3-update_1/bin/../lib/gcc/arm-none-eabi/8.3.1/../../../../arm-none-eabi/lib/thumb/v7e-m+fp/hard/libc.a(lib_a-readr.o)
 .ARM.attributes
                0x0000000000000000       0x34 /opt/homebrew/Cellar/arm-gcc-bin@8/8-2019-q3-update_1/bin/../lib/gcc/arm-none-eabi/8.3.1/../../../../arm-none-eabi/lib/thumb/v7e-m+fp/hard/libc.a(lib_a-readr.o)
 .text          0x0000000000000000        0x0 /opt/homebrew/Cellar/arm-gcc-bin@8/8-2019-q3-update_1/bin/../lib/gcc/arm-none-eabi/8.3.1/../../../../arm-none-eabi/lib/thumb/v7e-m+fp/hard/libc.a(lib_a-reent.o)
 .data          0x0000000000000000        0x0 /opt/homebrew/Cellar/arm-gcc-bin@8/8-2019-q3-update_1/bin/../lib/gcc/arm-none-eabi/8.3.1/../../../../arm-none-eabi/lib/thumb/v7e-m+fp/hard/libc.a(lib_a-reent.o)
 .bss           0x0000000000000000        0x0 /opt/homebrew/Cellar/arm-gcc-bin@8/8-2019-q3-update_1/bin/../lib/gcc/arm-none-eabi/8.3.1/../../../../arm-none-eabi/lib/thumb/v7e-m+fp/hard/libc.a(lib_a-reent.o)
 .text.cleanup_glue
                0x0000000000000000       0x1c /opt/homebrew/Cellar/arm-gcc-bin@8/8-2019-q3-update_1/bin/../lib/gcc/arm-none-eabi/8.3.1/../../../../arm-none-eabi/lib/thumb/v7e-m+fp/hard/libc.a(lib_a-reent.o)
 .text._reclaim_reent
                0x0000000000000000       0x88 /opt/homebrew/Cellar/arm-gcc-bin@8/8-2019-q3-update_1/bin/../lib/gcc/arm-none-eabi/8.3.1/../../../../arm-none-eabi/lib/thumb/v7e-m+fp/hard/libc.a(lib_a-reent.o)
 .debug_frame   0x0000000000000000       0x60 /opt/homebrew/Cellar/arm-gcc-bin@8/8-2019-q3-update_1/bin/../lib/gcc/arm-none-eabi/8.3.1/../../../../arm-none-eabi/lib/thumb/v7e-m+fp/hard/libc.a(lib_a-reent.o)
 .ARM.attributes
                0x0000000000000000       0x34 /opt/homebrew/Cellar/arm-gcc-bin@8/8-2019-q3-update_1/bin/../lib/gcc/arm-none-eabi/8.3.1/../../../../arm-none-eabi/lib/thumb/v7e-m+fp/hard/libc.a(lib_a-reent.o)
 COMMON         0x0000000000000000        0x4 /opt/homebrew/Cellar/arm-gcc-bin@8/8-2019-q3-update_1/bin/../lib/gcc/arm-none-eabi/8.3.1/../../../../arm-none-eabi/lib/thumb/v7e-m+fp/hard/libc.a(lib_a-reent.o)
 .text          0x0000000000000000        0x0 /opt/homebrew/Cellar/arm-gcc-bin@8/8-2019-q3-update_1/bin/../lib/gcc/arm-none-eabi/8.3.1/thumb/v7e-m+fp/hard/crtend.o
 .data          0x0000000000000000        0x0 /opt/homebrew/Cellar/arm-gcc-bin@8/8-2019-q3-update_1/bin/../lib/gcc/arm-none-eabi/8.3.1/thumb/v7e-m+fp/hard/crtend.o
 .bss           0x0000000000000000        0x0 /opt/homebrew/Cellar/arm-gcc-bin@8/8-2019-q3-update_1/bin/../lib/gcc/arm-none-eabi/8.3.1/thumb/v7e-m+fp/hard/crtend.o
 .eh_frame      0x0000000000000000        0x4 /opt/homebrew/Cellar/arm-gcc-bin@8/8-2019-q3-update_1/bin/../lib/gcc/arm-none-eabi/8.3.1/thumb/v7e-m+fp/hard/crtend.o
 .ARM.attributes
                0x0000000000000000       0x32 /opt/homebrew/Cellar/arm-gcc-bin@8/8-2019-q3-update_1/bin/../lib/gcc/arm-none-eabi/8.3.1/thumb/v7e-m+fp/hard/crtend.o
 .text          0x0000000000000000        0x0 /opt/homebrew/Cellar/arm-gcc-bin@8/8-2019-q3-update_1/bin/../lib/gcc/arm-none-eabi/8.3.1/thumb/v7e-m+fp/hard/crtn.o
 .data          0x0000000000000000        0x0 /opt/homebrew/Cellar/arm-gcc-bin@8/8-2019-q3-update_1/bin/../lib/gcc/arm-none-eabi/8.3.1/thumb/v7e-m+fp/hard/crtn.o
 .bss           0x0000000000000000        0x0 /opt/homebrew/Cellar/arm-gcc-bin@8/8-2019-q3-update_1/bin/../lib/gcc/arm-none-eabi/8.3.1/thumb/v7e-m+fp/hard/crtn.o

Memory Configuration

Name             Origin             Length             Attributes
rom              0x0000000000004000 0x000000000003c000 xr
ram              0x0000000020000000 0x0000000000020000 xrw
bkupram          0x0000000047000000 0x0000000000002000 xrw
qspi             0x0000000004000000 0x0000000001000000 xrw
*default*        0x0000000000000000 0xffffffffffffffff

Linker script and memory map

LOAD /opt/homebrew/Cellar/arm-gcc-bin@8/8-2019-q3-update_1/bin/../lib/gcc/arm-none-eabi/8.3.1/thumb/v7e-m+fp/hard/crti.o
LOAD /opt/homebrew/Cellar/arm-gcc-bin@8/8-2019-q3-update_1/bin/../lib/gcc/arm-none-eabi/8.3.1/thumb/v7e-m+fp/hard/crtbegin.o
LOAD /opt/homebrew/Cellar/arm-gcc-bin@8/8-2019-q3-update_1/bin/../lib/gcc/arm-none-eabi/8.3.1/../../../../arm-none-eabi/lib/thumb/v7e-m+fp/hard/rdimon-crt0.o
LOAD .build/obj_massdrop_ctrl_default/config_led.o
LOAD .build/obj_massdrop_ctrl_default/keyboards/massdrop/ctrl/ctrl.o
LOAD .build/obj_massdrop_ctrl_default/keyboards/massdrop/ctrl/keymaps/default/keymap.o
LOAD .build/obj_massdrop_ctrl_default/quantum/quantum.o
LOAD .build/obj_massdrop_ctrl_default/quantum/send_string.o
LOAD .build/obj_massdrop_ctrl_default/quantum/bitwise.o
LOAD .build/obj_massdrop_ctrl_default/quantum/led.o
LOAD .build/obj_massdrop_ctrl_default/quantum/action.o
LOAD .build/obj_massdrop_ctrl_default/quantum/action_layer.o
LOAD .build/obj_massdrop_ctrl_default/quantum/action_macro.o
LOAD .build/obj_massdrop_ctrl_default/quantum/action_tapping.o
LOAD .build/obj_massdrop_ctrl_default/quantum/action_util.o
LOAD .build/obj_massdrop_ctrl_default/quantum/eeconfig.o
LOAD .build/obj_massdrop_ctrl_default/quantum/keyboard.o
LOAD .build/obj_massdrop_ctrl_default/quantum/keymap_common.o
LOAD .build/obj_massdrop_ctrl_default/quantum/keycode_config.o
LOAD .build/obj_massdrop_ctrl_default/quantum/sync_timer.o
LOAD .build/obj_massdrop_ctrl_default/quantum/logging/debug.o
LOAD .build/obj_massdrop_ctrl_default/quantum/logging/sendchar.o
LOAD .build/obj_massdrop_ctrl_default/quantum/logging/print.o
LOAD .build/obj_massdrop_ctrl_default/quantum/bootmagic/magic.o
LOAD .build/obj_massdrop_ctrl_default/quantum/matrix_common.o
LOAD .build/obj_massdrop_ctrl_default/quantum/matrix.o
LOAD .build/obj_massdrop_ctrl_default/quantum/debounce/sym_defer_g.o
LOAD .build/obj_massdrop_ctrl_default/quantum/main.o
LOAD .build/obj_massdrop_ctrl_default/lib/printf/printf.o
LOAD .build/obj_massdrop_ctrl_default/platforms/arm_atsam/eeprom.o
LOAD .build/obj_massdrop_ctrl_default/quantum/color.o
LOAD .build/obj_massdrop_ctrl_default/quantum/rgb_matrix/rgb_matrix.o
LOAD .build/obj_massdrop_ctrl_default/quantum/rgb_matrix/rgb_matrix_drivers.o
LOAD .build/obj_massdrop_ctrl_default/lib/lib8tion/lib8tion.o
LOAD .build/obj_massdrop_ctrl_default/quantum/process_keycode/process_rgb.o
LOAD .build/obj_massdrop_ctrl_default/quantum/led_tables.o
LOAD .build/obj_massdrop_ctrl_default/quantum/process_keycode/process_magic.o
LOAD .build/obj_massdrop_ctrl_default/quantum/process_keycode/process_grave_esc.o
LOAD .build/obj_massdrop_ctrl_default/quantum/process_keycode/process_space_cadet.o
LOAD .build/obj_massdrop_ctrl_default/protocol/host.o
LOAD .build/obj_massdrop_ctrl_default/protocol/report.o
LOAD .build/obj_massdrop_ctrl_default/protocol/usb_device_state.o
LOAD .build/obj_massdrop_ctrl_default/protocol/usb_util.o
LOAD .build/obj_massdrop_ctrl_default/platforms/arm_atsam/platform.o
LOAD .build/obj_massdrop_ctrl_default/platforms/arm_atsam/suspend.o
LOAD .build/obj_massdrop_ctrl_default/platforms/arm_atsam/timer.o
LOAD .build/obj_massdrop_ctrl_default/platforms/arm_atsam/bootloader.o
LOAD .build/obj_massdrop_ctrl_default/protocol/arm_atsam/adc.o
LOAD .build/obj_massdrop_ctrl_default/protocol/arm_atsam/clks.o
LOAD .build/obj_massdrop_ctrl_default/protocol/arm_atsam/d51_util.o
LOAD .build/obj_massdrop_ctrl_default/protocol/arm_atsam/i2c_master.o
LOAD .build/obj_massdrop_ctrl_default/protocol/arm_atsam/md_rgb_matrix_programs.o
LOAD .build/obj_massdrop_ctrl_default/protocol/arm_atsam/md_rgb_matrix.o
LOAD .build/obj_massdrop_ctrl_default/protocol/arm_atsam/main_arm_atsam.o
LOAD .build/obj_massdrop_ctrl_default/protocol/arm_atsam/shift_register.o
LOAD .build/obj_massdrop_ctrl_default/protocol/arm_atsam/spi_master.o
LOAD .build/obj_massdrop_ctrl_default/protocol/arm_atsam/startup.o
LOAD .build/obj_massdrop_ctrl_default/protocol/arm_atsam/usb/main_usb.o
LOAD .build/obj_massdrop_ctrl_default/protocol/arm_atsam/usb/udc.o
LOAD .build/obj_massdrop_ctrl_default/protocol/arm_atsam/usb/udi_cdc.o
LOAD .build/obj_massdrop_ctrl_default/protocol/arm_atsam/usb/udi_hid.o
LOAD .build/obj_massdrop_ctrl_default/protocol/arm_atsam/usb/udi_hid_kbd.o
LOAD .build/obj_massdrop_ctrl_default/protocol/arm_atsam/usb/udi_hid_kbd_desc.o
LOAD .build/obj_massdrop_ctrl_default/protocol/arm_atsam/usb/ui.o
LOAD .build/obj_massdrop_ctrl_default/protocol/arm_atsam/usb/usb.o
LOAD .build/obj_massdrop_ctrl_default/protocol/arm_atsam/usb/usb_device_udd.o
LOAD .build/obj_massdrop_ctrl_default/protocol/arm_atsam/usb/usb_hub.o
LOAD .build/obj_massdrop_ctrl_default/protocol/arm_atsam/usb/usb_util.o
LOAD .build/obj_massdrop_ctrl_default/drivers/usb2422.o
START GROUP
END GROUP
LOAD /opt/homebrew/Cellar/arm-gcc-bin@8/8-2019-q3-update_1/bin/../lib/gcc/arm-none-eabi/8.3.1/../../../../arm-none-eabi/lib/thumb/v7e-m+fp/hard/libm.a
START GROUP
LOAD /opt/homebrew/Cellar/arm-gcc-bin@8/8-2019-q3-update_1/bin/../lib/gcc/arm-none-eabi/8.3.1/thumb/v7e-m+fp/hard/libgcc.a
LOAD /opt/homebrew/Cellar/arm-gcc-bin@8/8-2019-q3-update_1/bin/../lib/gcc/arm-none-eabi/8.3.1/../../../../arm-none-eabi/lib/thumb/v7e-m+fp/hard/libg.a
LOAD /opt/homebrew/Cellar/arm-gcc-bin@8/8-2019-q3-update_1/bin/../lib/gcc/arm-none-eabi/8.3.1/../../../../arm-none-eabi/lib/thumb/v7e-m+fp/hard/libc.a
END GROUP
START GROUP
LOAD /opt/homebrew/Cellar/arm-gcc-bin@8/8-2019-q3-update_1/bin/../lib/gcc/arm-none-eabi/8.3.1/thumb/v7e-m+fp/hard/libgcc.a
LOAD /opt/homebrew/Cellar/arm-gcc-bin@8/8-2019-q3-update_1/bin/../lib/gcc/arm-none-eabi/8.3.1/../../../../arm-none-eabi/lib/thumb/v7e-m+fp/hard/libc.a
LOAD /opt/homebrew/Cellar/arm-gcc-bin@8/8-2019-q3-update_1/bin/../lib/gcc/arm-none-eabi/8.3.1/../../../../arm-none-eabi/lib/thumb/v7e-m+fp/hard/librdimon.a
END GROUP
LOAD /opt/homebrew/Cellar/arm-gcc-bin@8/8-2019-q3-update_1/bin/../lib/gcc/arm-none-eabi/8.3.1/thumb/v7e-m+fp/hard/crtend.o
LOAD /opt/homebrew/Cellar/arm-gcc-bin@8/8-2019-q3-update_1/bin/../lib/gcc/arm-none-eabi/8.3.1/thumb/v7e-m+fp/hard/crtn.o
                0x0000000000008000                STACK_SIZE = DEFINED (STACK_SIZE)?STACK_SIZE:DEFINED (__stack_size__)?__stack_size__:0x8000
                0x0000000000000800                HEAP_SIZE = DEFINED (HEAP_SIZE)?HEAP_SIZE:DEFINED (__heap_size__)?__heap_size__:0x800
                0x0000000000004000                _srom = ORIGIN (rom)
                0x000000000003c000                _lrom = LENGTH (rom)
                0x0000000000040000                _erom = (ORIGIN (rom) + LENGTH (rom))
                0x0000000020000000                _sram = ORIGIN (ram)
                0x0000000000020000                _lram = LENGTH (ram)
                0x0000000020020000                _eram = (ORIGIN (ram) + LENGTH (ram))

.text           0x0000000000004000     0x9e64
                0x0000000000004000                . = ALIGN (0x4)
                0x0000000000004000                _sfixed = .
 *(.vectors .vectors.*)
 .vectors       0x0000000000004000      0x264 .build/obj_massdrop_ctrl_default/protocol/arm_atsam/startup.o
                0x0000000000004000                exception_table
 *(.text .text.* .gnu.linkonce.t.*)
 .text          0x0000000000004264       0x40 /opt/homebrew/Cellar/arm-gcc-bin@8/8-2019-q3-update_1/bin/../lib/gcc/arm-none-eabi/8.3.1/thumb/v7e-m+fp/hard/crtbegin.o
 .text.rgb_matrix_indicators_advanced_kb
                0x00000000000042a4        0x4 .build/obj_massdrop_ctrl_default/config_led.o
                0x00000000000042a4                rgb_matrix_indicators_advanced_kb
 .text.matrix_output_select_delay
                0x00000000000042a8        0x4 .build/obj_massdrop_ctrl_default/keyboards/massdrop/ctrl/ctrl.o
                0x00000000000042a8                matrix_output_select_delay
 .text.matrix_output_unselect_delay
                0x00000000000042ac        0x2 .build/obj_massdrop_ctrl_default/keyboards/massdrop/ctrl/ctrl.o
                0x00000000000042ac                matrix_output_unselect_delay
 *fill*         0x00000000000042ae        0x2 
 .text.process_record_user
                0x00000000000042b0      0x164 .build/obj_massdrop_ctrl_default/keyboards/massdrop/ctrl/keymaps/default/keymap.o
                0x00000000000042b0                process_record_user
 .text.process_action_kb
                0x0000000000004414        0x4 .build/obj_massdrop_ctrl_default/quantum/quantum.o
                0x0000000000004414                process_action_kb
 .text.process_record_kb
                0x0000000000004418        0x8 .build/obj_massdrop_ctrl_default/quantum/quantum.o
                0x0000000000004418                process_record_kb
 .text.post_process_record_user
                0x0000000000004420        0x2 .build/obj_massdrop_ctrl_default/quantum/quantum.o
                0x0000000000004420                post_process_record_user
 .text.post_process_record_kb
                0x0000000000004422        0x8 .build/obj_massdrop_ctrl_default/quantum/quantum.o
                0x0000000000004422                post_process_record_kb
 *fill*         0x000000000000442a        0x2 
 .text.get_event_keycode
                0x000000000000442c       0x4c .build/obj_massdrop_ctrl_default/quantum/quantum.o
                0x000000000000442c                get_event_keycode
 .text.get_record_keycode
                0x0000000000004478        0xc .build/obj_massdrop_ctrl_default/quantum/quantum.o
                0x0000000000004478                get_record_keycode
 .text.pre_process_record_quantum
                0x0000000000004484        0x4 .build/obj_massdrop_ctrl_default/quantum/quantum.o
                0x0000000000004484                pre_process_record_quantum
 .text.post_process_record_quantum
                0x0000000000004488       0x12 .build/obj_massdrop_ctrl_default/quantum/quantum.o
                0x0000000000004488                post_process_record_quantum
 .text.matrix_init_quantum
                0x000000000000449a       0x16 .build/obj_massdrop_ctrl_default/quantum/quantum.o
                0x000000000000449a                matrix_init_quantum
 .text.matrix_scan_quantum
                0x00000000000044b0        0x4 .build/obj_massdrop_ctrl_default/quantum/quantum.o
                0x00000000000044b0                matrix_scan_quantum
 .text.suspend_wakeup_init_user
                0x00000000000044b4        0x2 .build/obj_massdrop_ctrl_default/quantum/quantum.o
                0x00000000000044b4                suspend_wakeup_init_user
 .text.suspend_power_down_user
                0x00000000000044b6        0x2 .build/obj_massdrop_ctrl_default/quantum/quantum.o
                0x00000000000044b6                suspend_power_down_user
 .text.suspend_power_down_kb
                0x00000000000044b8        0x8 .build/obj_massdrop_ctrl_default/quantum/quantum.o
                0x00000000000044b8                suspend_power_down_kb
 .text.shutdown_user
                0x00000000000044c0        0x2 .build/obj_massdrop_ctrl_default/quantum/quantum.o
                0x00000000000044c0                shutdown_user
 .text.reset_keyboard
                0x00000000000044c2       0x1a .build/obj_massdrop_ctrl_default/quantum/quantum.o
                0x00000000000044c2                reset_keyboard
 .text.process_record_quantum
                0x00000000000044dc       0x9a .build/obj_massdrop_ctrl_default/quantum/quantum.o
                0x00000000000044dc                process_record_quantum
 .text.suspend_wakeup_init_kb
                0x0000000000004576        0x8 .build/obj_massdrop_ctrl_default/quantum/quantum.o
                0x0000000000004576                suspend_wakeup_init_kb
 .text.led_set_user
                0x000000000000457e        0x2 .build/obj_massdrop_ctrl_default/quantum/led.o
                0x000000000000457e                led_set_user
 .text.led_set_kb
                0x0000000000004580        0x8 .build/obj_massdrop_ctrl_default/quantum/led.o
                0x0000000000004580                led_set_kb
 .text.led_update_user
                0x0000000000004588        0x4 .build/obj_massdrop_ctrl_default/quantum/led.o
                0x0000000000004588                led_update_user
 .text.led_update_kb
                0x000000000000458c        0x8 .build/obj_massdrop_ctrl_default/quantum/led.o
                0x000000000000458c                led_update_kb
 .text.led_init_ports
                0x0000000000004594        0x2 .build/obj_massdrop_ctrl_default/quantum/led.o
                0x0000000000004594                led_init_ports
 .text.led_set  0x0000000000004596       0x10 .build/obj_massdrop_ctrl_default/quantum/led.o
                0x0000000000004596                led_set
 .text.action_exec
                0x00000000000045a6       0x52 .build/obj_massdrop_ctrl_default/quantum/action.o
                0x00000000000045a6                action_exec
 .text.process_record_tap_hint
                0x00000000000045f8        0x6 .build/obj_massdrop_ctrl_default/quantum/action.o
                0x00000000000045f8                process_record_tap_hint
 *fill*         0x00000000000045fe        0x2 
 .text.register_code
                0x0000000000004600       0x88 .build/obj_massdrop_ctrl_default/quantum/action.o
                0x0000000000004600                register_code
 .text.unregister_code
                0x0000000000004688       0x5c .build/obj_massdrop_ctrl_default/quantum/action.o
                0x0000000000004688                unregister_code
 .text.tap_code_delay
                0x00000000000046e4       0x24 .build/obj_massdrop_ctrl_default/quantum/action.o
                0x00000000000046e4                tap_code_delay
 .text.tap_code
                0x0000000000004708        0xc .build/obj_massdrop_ctrl_default/quantum/action.o
                0x0000000000004708                tap_code
 .text.register_mods
                0x0000000000004714       0x12 .build/obj_massdrop_ctrl_default/quantum/action.o
                0x0000000000004714                register_mods
 .text.unregister_mods
                0x0000000000004726       0x12 .build/obj_massdrop_ctrl_default/quantum/action.o
                0x0000000000004726                unregister_mods
 .text.process_action
                0x0000000000004738      0x3c0 .build/obj_massdrop_ctrl_default/quantum/action.o
                0x0000000000004738                process_action
 .text.process_record_handler
                0x0000000000004af8       0x22 .build/obj_massdrop_ctrl_default/quantum/action.o
                0x0000000000004af8                process_record_handler
 *fill*         0x0000000000004b1a        0x2 
 .text.process_record
                0x0000000000004b1c       0x54 .build/obj_massdrop_ctrl_default/quantum/action.o
                0x0000000000004b1c                process_record
 .text.clear_keyboard_but_mods_and_keys
                0x0000000000004b70       0x1e .build/obj_massdrop_ctrl_default/quantum/action.o
                0x0000000000004b70                clear_keyboard_but_mods_and_keys
 .text.clear_keyboard_but_mods
                0x0000000000004b8e        0xe .build/obj_massdrop_ctrl_default/quantum/action.o
                0x0000000000004b8e                clear_keyboard_but_mods
 .text.clear_keyboard
                0x0000000000004b9c        0xe .build/obj_massdrop_ctrl_default/quantum/action.o
                0x0000000000004b9c                clear_keyboard
 .text.is_tap_action
                0x0000000000004baa       0x5e .build/obj_massdrop_ctrl_default/quantum/action.o
                0x0000000000004baa                is_tap_action
 .text.is_tap_record
                0x0000000000004c08       0x10 .build/obj_massdrop_ctrl_default/quantum/action.o
                0x0000000000004c08                is_tap_record
 .text.debug_event
                0x0000000000004c18        0xc .build/obj_massdrop_ctrl_default/quantum/action.o
                0x0000000000004c18                debug_event
 .text.debug_record
                0x0000000000004c24        0xc .build/obj_massdrop_ctrl_default/quantum/action.o
                0x0000000000004c24                debug_record
 .text.default_layer_state_set_user
                0x0000000000004c30        0x2 .build/obj_massdrop_ctrl_default/quantum/action_layer.o
                0x0000000000004c30                default_layer_state_set_user
 .text.default_layer_state_set_kb
                0x0000000000004c32        0x8 .build/obj_massdrop_ctrl_default/quantum/action_layer.o
                0x0000000000004c32                default_layer_state_set_kb
 *fill*         0x0000000000004c3a        0x2 
 .text.default_layer_state_set
                0x0000000000004c3c       0x18 .build/obj_massdrop_ctrl_default/quantum/action_layer.o
 .text.default_layer_debug
                0x0000000000004c54        0x2 .build/obj_massdrop_ctrl_default/quantum/action_layer.o
                0x0000000000004c54                default_layer_debug
 .text.default_layer_set
                0x0000000000004c56        0x4 .build/obj_massdrop_ctrl_default/quantum/action_layer.o
                0x0000000000004c56                default_layer_set
 *fill*         0x0000000000004c5a        0x2 
 .text.default_layer_or
                0x0000000000004c5c       0x10 .build/obj_massdrop_ctrl_default/quantum/action_layer.o
                0x0000000000004c5c                default_layer_or
 .text.default_layer_and
                0x0000000000004c6c       0x10 .build/obj_massdrop_ctrl_default/quantum/action_layer.o
                0x0000000000004c6c                default_layer_and
 .text.default_layer_xor
                0x0000000000004c7c       0x10 .build/obj_massdrop_ctrl_default/quantum/action_layer.o
                0x0000000000004c7c                default_layer_xor
 .text.layer_state_set_user
                0x0000000000004c8c        0x4 .build/obj_massdrop_ctrl_default/quantum/action_layer.o
                0x0000000000004c8c                layer_state_set_user
 .text.layer_state_set_kb
                0x0000000000004c90        0x8 .build/obj_massdrop_ctrl_default/quantum/action_layer.o
                0x0000000000004c90                layer_state_set_kb
 .text.layer_state_set
                0x0000000000004c98       0x18 .build/obj_massdrop_ctrl_default/quantum/action_layer.o
                0x0000000000004c98                layer_state_set
 .text.layer_clear
                0x0000000000004cb0        0x6 .build/obj_massdrop_ctrl_default/quantum/action_layer.o
                0x0000000000004cb0                layer_clear
 .text.layer_move
                0x0000000000004cb6        0xa .build/obj_massdrop_ctrl_default/quantum/action_layer.o
                0x0000000000004cb6                layer_move
 .text.layer_on
                0x0000000000004cc0       0x14 .build/obj_massdrop_ctrl_default/quantum/action_layer.o
                0x0000000000004cc0                layer_on
 .text.layer_off
                0x0000000000004cd4       0x18 .build/obj_massdrop_ctrl_default/quantum/action_layer.o
                0x0000000000004cd4                layer_off
 .text.layer_invert
                0x0000000000004cec       0x14 .build/obj_massdrop_ctrl_default/quantum/action_layer.o
                0x0000000000004cec                layer_invert
 .text.layer_or
                0x0000000000004d00       0x10 .build/obj_massdrop_ctrl_default/quantum/action_layer.o
                0x0000000000004d00                layer_or
 .text.layer_and
                0x0000000000004d10       0x10 .build/obj_massdrop_ctrl_default/quantum/action_layer.o
                0x0000000000004d10                layer_and
 .text.layer_xor
                0x0000000000004d20       0x10 .build/obj_massdrop_ctrl_default/quantum/action_layer.o
                0x0000000000004d20                layer_xor
 .text.layer_debug
                0x0000000000004d30        0x2 .build/obj_massdrop_ctrl_default/quantum/action_layer.o
                0x0000000000004d30                layer_debug
 *fill*         0x0000000000004d32        0x2 
 .text.update_source_layers_cache
                0x0000000000004d34       0x48 .build/obj_massdrop_ctrl_default/quantum/action_layer.o
                0x0000000000004d34                update_source_layers_cache
 .text.read_source_layers_cache
                0x0000000000004d7c       0x40 .build/obj_massdrop_ctrl_default/quantum/action_layer.o
                0x0000000000004d7c                read_source_layers_cache
 .text.layer_switch_get_layer
                0x0000000000004dbc       0x3c .build/obj_massdrop_ctrl_default/quantum/action_layer.o
                0x0000000000004dbc                layer_switch_get_layer
 .text.layer_switch_get_action
                0x0000000000004df8       0x18 .build/obj_massdrop_ctrl_default/quantum/action_layer.o
                0x0000000000004df8                layer_switch_get_action
 .text.store_or_get_action
                0x0000000000004e10       0x48 .build/obj_massdrop_ctrl_default/quantum/action_layer.o
                0x0000000000004e10                store_or_get_action
 .text.action_macro_play
                0x0000000000004e58       0xb4 .build/obj_massdrop_ctrl_default/quantum/action_macro.o
                0x0000000000004e58                action_macro_play
 .text.debug_waiting_buffer
                0x0000000000004f0c       0x2c .build/obj_massdrop_ctrl_default/quantum/action_tapping.o
 .text.debug_tapping_key
                0x0000000000004f38       0x10 .build/obj_massdrop_ctrl_default/quantum/action_tapping.o
 .text.waiting_buffer_scan_tap
                0x0000000000004f48       0xa4 .build/obj_massdrop_ctrl_default/quantum/action_tapping.o
 .text.process_tapping
                0x0000000000004fec      0x3bc .build/obj_massdrop_ctrl_default/quantum/action_tapping.o
 .text.action_tapping_process
                0x00000000000053a8       0xd8 .build/obj_massdrop_ctrl_default/quantum/action_tapping.o
                0x00000000000053a8                action_tapping_process
 .text.add_key  0x0000000000005480       0x10 .build/obj_massdrop_ctrl_default/quantum/action_util.o
                0x0000000000005480                add_key
 .text.del_key  0x0000000000005490       0x10 .build/obj_massdrop_ctrl_default/quantum/action_util.o
                0x0000000000005490                del_key
 .text.clear_keys
                0x00000000000054a0        0xc .build/obj_massdrop_ctrl_default/quantum/action_util.o
                0x00000000000054a0                clear_keys
 .text.get_oneshot_layer
                0x00000000000054ac       0x10 .build/obj_massdrop_ctrl_default/quantum/action_util.o
                0x00000000000054ac                get_oneshot_layer
 .text.get_oneshot_layer_state
                0x00000000000054bc       0x10 .build/obj_massdrop_ctrl_default/quantum/action_util.o
                0x00000000000054bc                get_oneshot_layer_state
 .text.is_oneshot_layer_active
                0x00000000000054cc       0x14 .build/obj_massdrop_ctrl_default/quantum/action_util.o
                0x00000000000054cc                is_oneshot_layer_active
 .text.get_mods
                0x00000000000054e0        0xc .build/obj_massdrop_ctrl_default/quantum/action_util.o
                0x00000000000054e0                get_mods
 .text.add_mods
                0x00000000000054ec       0x10 .build/obj_massdrop_ctrl_default/quantum/action_util.o
                0x00000000000054ec                add_mods
 .text.del_mods
                0x00000000000054fc       0x10 .build/obj_massdrop_ctrl_default/quantum/action_util.o
                0x00000000000054fc                del_mods
 .text.clear_mods
                0x000000000000550c        0xc .build/obj_massdrop_ctrl_default/quantum/action_util.o
                0x000000000000550c                clear_mods
 .text.add_weak_mods
                0x0000000000005518       0x10 .build/obj_massdrop_ctrl_default/quantum/action_util.o
                0x0000000000005518                add_weak_mods
 .text.del_weak_mods
                0x0000000000005528       0x10 .build/obj_massdrop_ctrl_default/quantum/action_util.o
                0x0000000000005528                del_weak_mods
 .text.clear_weak_mods
                0x0000000000005538        0xc .build/obj_massdrop_ctrl_default/quantum/action_util.o
                0x0000000000005538                clear_weak_mods
 .text.add_macro_mods
                0x0000000000005544       0x10 .build/obj_massdrop_ctrl_default/quantum/action_util.o
                0x0000000000005544                add_macro_mods
 .text.del_macro_mods
                0x0000000000005554       0x10 .build/obj_massdrop_ctrl_default/quantum/action_util.o
                0x0000000000005554                del_macro_mods
 .text.clear_macro_mods
                0x0000000000005564        0xc .build/obj_massdrop_ctrl_default/quantum/action_util.o
                0x0000000000005564                clear_macro_mods
 .text.get_oneshot_mods
                0x0000000000005570        0xc .build/obj_massdrop_ctrl_default/quantum/action_util.o
                0x0000000000005570                get_oneshot_mods
 .text.oneshot_mods_changed_user
                0x000000000000557c        0x2 .build/obj_massdrop_ctrl_default/quantum/action_util.o
                0x000000000000557c                oneshot_mods_changed_user
 .text.oneshot_mods_changed_kb
                0x000000000000557e        0x8 .build/obj_massdrop_ctrl_default/quantum/action_util.o
                0x000000000000557e                oneshot_mods_changed_kb
 *fill*         0x0000000000005586        0x2 
 .text.set_oneshot_mods
                0x0000000000005588       0x24 .build/obj_massdrop_ctrl_default/quantum/action_util.o
                0x0000000000005588                set_oneshot_mods
 .text.clear_oneshot_mods
                0x00000000000055ac       0x18 .build/obj_massdrop_ctrl_default/quantum/action_util.o
                0x00000000000055ac                clear_oneshot_mods
 .text.send_keyboard_report
                0x00000000000055c4       0x4c .build/obj_massdrop_ctrl_default/quantum/action_util.o
                0x00000000000055c4                send_keyboard_report
 .text.oneshot_layer_changed_user
                0x0000000000005610        0x2 .build/obj_massdrop_ctrl_default/quantum/action_util.o
                0x0000000000005610                oneshot_layer_changed_user
 .text.oneshot_layer_changed_kb
                0x0000000000005612        0x8 .build/obj_massdrop_ctrl_default/quantum/action_util.o
                0x0000000000005612                oneshot_layer_changed_kb
 *fill*         0x000000000000561a        0x2 
 .text.set_oneshot_layer
                0x000000000000561c       0x34 .build/obj_massdrop_ctrl_default/quantum/action_util.o
                0x000000000000561c                set_oneshot_layer
 .text.reset_oneshot_layer
                0x0000000000005650       0x14 .build/obj_massdrop_ctrl_default/quantum/action_util.o
                0x0000000000005650                reset_oneshot_layer
 .text.clear_oneshot_layer_state
                0x0000000000005664       0x3c .build/obj_massdrop_ctrl_default/quantum/action_util.o
                0x0000000000005664                clear_oneshot_layer_state
 .text.oneshot_set
                0x00000000000056a0       0x2c .build/obj_massdrop_ctrl_default/quantum/action_util.o
                0x00000000000056a0                oneshot_set
 .text.oneshot_toggle
                0x00000000000056cc       0x18 .build/obj_massdrop_ctrl_default/quantum/action_util.o
                0x00000000000056cc                oneshot_toggle
 .text.oneshot_enable
                0x00000000000056e4        0x6 .build/obj_massdrop_ctrl_default/quantum/action_util.o
                0x00000000000056e4                oneshot_enable
 .text.oneshot_disable
                0x00000000000056ea        0x6 .build/obj_massdrop_ctrl_default/quantum/action_util.o
                0x00000000000056ea                oneshot_disable
 .text.eeconfig_is_enabled
                0x00000000000056f0       0x14 .build/obj_massdrop_ctrl_default/quantum/eeconfig.o
                0x00000000000056f0                eeconfig_is_enabled
 .text.eeconfig_read_debug
                0x0000000000005704        0x6 .build/obj_massdrop_ctrl_default/quantum/eeconfig.o
                0x0000000000005704                eeconfig_read_debug
 .text.eeconfig_read_default_layer
                0x000000000000570a        0x6 .build/obj_massdrop_ctrl_default/quantum/eeconfig.o
                0x000000000000570a                eeconfig_read_default_layer
 .text.eeconfig_read_keymap
                0x0000000000005710       0x18 .build/obj_massdrop_ctrl_default/quantum/eeconfig.o
                0x0000000000005710                eeconfig_read_keymap
 .text.eeconfig_update_keymap
                0x0000000000005728       0x18 .build/obj_massdrop_ctrl_default/quantum/eeconfig.o
                0x0000000000005728                eeconfig_update_keymap
 .text.eeconfig_update_kb
                0x0000000000005740        0x8 .build/obj_massdrop_ctrl_default/quantum/eeconfig.o
                0x0000000000005740                eeconfig_update_kb
 .text.eeconfig_update_user
                0x0000000000005748        0x8 .build/obj_massdrop_ctrl_default/quantum/eeconfig.o
                0x0000000000005748                eeconfig_update_user
 .text.eeconfig_init_user
                0x0000000000005750        0x6 .build/obj_massdrop_ctrl_default/quantum/eeconfig.o
                0x0000000000005750                eeconfig_init_user
 .text.eeconfig_init_kb
                0x0000000000005756        0xe .build/obj_massdrop_ctrl_default/quantum/eeconfig.o
                0x0000000000005756                eeconfig_init_kb
 .text.eeconfig_init_quantum
                0x0000000000005764       0x8c .build/obj_massdrop_ctrl_default/quantum/eeconfig.o
                0x0000000000005764                eeconfig_init_quantum
 .text.eeconfig_init
                0x00000000000057f0        0x4 .build/obj_massdrop_ctrl_default/quantum/eeconfig.o
                0x00000000000057f0                eeconfig_init
 .text.eeconfig_update_handedness
                0x00000000000057f4        0x8 .build/obj_massdrop_ctrl_default/quantum/eeconfig.o
                0x00000000000057f4                eeconfig_update_handedness
 .text.last_matrix_activity_trigger
                0x00000000000057fc       0x14 .build/obj_massdrop_ctrl_default/quantum/keyboard.o
                0x00000000000057fc                last_matrix_activity_trigger
 .text.keyboard_pre_init_user
                0x0000000000005810        0x2 .build/obj_massdrop_ctrl_default/quantum/keyboard.o
                0x0000000000005810                keyboard_pre_init_user
 .text.matrix_setup
                0x0000000000005812        0x2 .build/obj_massdrop_ctrl_default/quantum/keyboard.o
                0x0000000000005812                matrix_setup
 .text.keyboard_pre_init_kb
                0x0000000000005814        0x8 .build/obj_massdrop_ctrl_default/quantum/keyboard.o
                0x0000000000005814                keyboard_pre_init_kb
 .text.keyboard_post_init_user
                0x000000000000581c        0x2 .build/obj_massdrop_ctrl_default/quantum/keyboard.o
                0x000000000000581c                keyboard_post_init_user
 .text.keyboard_post_init_kb
                0x000000000000581e        0x8 .build/obj_massdrop_ctrl_default/quantum/keyboard.o
                0x000000000000581e                keyboard_post_init_kb
 *fill*         0x0000000000005826        0x2 
 .text.keyboard_setup
                0x0000000000005828       0x18 .build/obj_massdrop_ctrl_default/quantum/keyboard.o
                0x0000000000005828                keyboard_setup
 .text.is_keyboard_master
                0x0000000000005840        0x4 .build/obj_massdrop_ctrl_default/quantum/keyboard.o
                0x0000000000005840                is_keyboard_master
 .text.should_process_keypress
                0x0000000000005844        0x8 .build/obj_massdrop_ctrl_default/quantum/keyboard.o
                0x0000000000005844                should_process_keypress
 .text.housekeeping_task_kb
                0x000000000000584c        0x2 .build/obj_massdrop_ctrl_default/quantum/keyboard.o
                0x000000000000584c                housekeeping_task_kb
 .text.housekeeping_task_user
                0x000000000000584e        0x2 .build/obj_massdrop_ctrl_default/quantum/keyboard.o
                0x000000000000584e                housekeeping_task_user
 .text.housekeeping_task
                0x0000000000005850        0xc .build/obj_massdrop_ctrl_default/quantum/keyboard.o
                0x0000000000005850                housekeeping_task
 .text.keyboard_init
                0x000000000000585c       0x10 .build/obj_massdrop_ctrl_default/quantum/keyboard.o
                0x000000000000585c                keyboard_init
 .text.keyboard_task
                0x000000000000586c       0xf8 .build/obj_massdrop_ctrl_default/quantum/keyboard.o
                0x000000000000586c                keyboard_task
 .text.action_get_macro
                0x0000000000005964        0x4 .build/obj_massdrop_ctrl_default/quantum/keymap_common.o
                0x0000000000005964                action_get_macro
 .text.action_function
                0x0000000000005968        0x2 .build/obj_massdrop_ctrl_default/quantum/keymap_common.o
                0x0000000000005968                action_function
 *fill*         0x000000000000596a        0x2 
 .text.keymap_key_to_keycode
                0x000000000000596c       0x20 .build/obj_massdrop_ctrl_default/quantum/keymap_common.o
                0x000000000000596c                keymap_key_to_keycode
 .text.keymap_function_id_to_action
                0x000000000000598c        0xc .build/obj_massdrop_ctrl_default/quantum/keymap_common.o
                0x000000000000598c                keymap_function_id_to_action
 .text.action_for_keycode
                0x0000000000005998      0x190 .build/obj_massdrop_ctrl_default/quantum/keymap_common.o
                0x0000000000005998                action_for_keycode
 .text.action_for_key
                0x0000000000005b28       0x16 .build/obj_massdrop_ctrl_default/quantum/keymap_common.o
                0x0000000000005b28                action_for_key
 *fill*         0x0000000000005b3e        0x2 
 .text.keycode_config
                0x0000000000005b40      0x104 .build/obj_massdrop_ctrl_default/quantum/keycode_config.o
                0x0000000000005b40                keycode_config
 .text.mod_config
                0x0000000000005c44       0xac .build/obj_massdrop_ctrl_default/quantum/keycode_config.o
                0x0000000000005c44                mod_config
 .text.sendchar
                0x0000000000005cf0        0x4 .build/obj_massdrop_ctrl_default/quantum/logging/sendchar.o
                0x0000000000005cf0                sendchar
 .text.null_sendchar_func
                0x0000000000005cf4        0x4 .build/obj_massdrop_ctrl_default/quantum/logging/print.o
 .text.print_set_sendchar
                0x0000000000005cf8        0xc .build/obj_massdrop_ctrl_default/quantum/logging/print.o
                0x0000000000005cf8                print_set_sendchar
 .text.bootmagic
                0x0000000000005d04        0x2 .build/obj_massdrop_ctrl_default/quantum/bootmagic/magic.o
                0x0000000000005d04                bootmagic
 *fill*         0x0000000000005d06        0x2 
 .text.magic    0x0000000000005d08       0x40 .build/obj_massdrop_ctrl_default/quantum/bootmagic/magic.o
                0x0000000000005d08                magic
 .text.matrix_init_user
                0x0000000000005d48        0x2 .build/obj_massdrop_ctrl_default/quantum/matrix_common.o
                0x0000000000005d48                matrix_init_user
 .text.matrix_init_kb
                0x0000000000005d4a        0x8 .build/obj_massdrop_ctrl_default/quantum/matrix_common.o
                0x0000000000005d4a                matrix_init_kb
 .text.matrix_scan_user
                0x0000000000005d52        0x2 .build/obj_massdrop_ctrl_default/quantum/matrix_common.o
                0x0000000000005d52                matrix_scan_user
 .text.matrix_scan_kb
                0x0000000000005d54        0x8 .build/obj_massdrop_ctrl_default/quantum/matrix_common.o
                0x0000000000005d54                matrix_scan_kb
 .text.matrix_get_row
                0x0000000000005d5c        0xc .build/obj_massdrop_ctrl_default/quantum/matrix_common.o
                0x0000000000005d5c                matrix_get_row
 .text.matrix_print
                0x0000000000005d68        0x2 .build/obj_massdrop_ctrl_default/quantum/matrix_common.o
                0x0000000000005d68                matrix_print
 .text.matrix_io_delay
                0x0000000000005d6a        0x6 .build/obj_massdrop_ctrl_default/quantum/matrix_common.o
                0x0000000000005d6a                matrix_io_delay
 .text.setPinInputHigh_atomic
                0x0000000000005d70       0x36 .build/obj_massdrop_ctrl_default/quantum/matrix.o
 *fill*         0x0000000000005da6        0x2 
 .text.matrix_init_pins
                0x0000000000005da8       0x3c .build/obj_massdrop_ctrl_default/quantum/matrix.o
                0x0000000000005da8                matrix_init_pins
 .text.matrix_read_cols_on_row
                0x0000000000005de4       0x9c .build/obj_massdrop_ctrl_default/quantum/matrix.o
                0x0000000000005de4                matrix_read_cols_on_row
 .text.matrix_init
                0x0000000000005e80       0x34 .build/obj_massdrop_ctrl_default/quantum/matrix.o
                0x0000000000005e80                matrix_init
 .text.matrix_scan
                0x0000000000005eb4       0x60 .build/obj_massdrop_ctrl_default/quantum/matrix.o
                0x0000000000005eb4                matrix_scan
 .text.debounce_init
                0x0000000000005f14        0x2 .build/obj_massdrop_ctrl_default/quantum/debounce/sym_defer_g.o
                0x0000000000005f14                debounce_init
 *fill*         0x0000000000005f16        0x2 
 .text.debounce
                0x0000000000005f18       0x40 .build/obj_massdrop_ctrl_default/quantum/debounce/sym_defer_g.o
                0x0000000000005f18                debounce
 .text.get_virtual_eeprom_size
                0x0000000000005f58       0x34 .build/obj_massdrop_ctrl_default/platforms/arm_atsam/eeprom.o
 .text.eeprom_read_byte
                0x0000000000005f8c       0x5c .build/obj_massdrop_ctrl_default/platforms/arm_atsam/eeprom.o
                0x0000000000005f8c                eeprom_read_byte
 .text.eeprom_write_byte
                0x0000000000005fe8       0x54 .build/obj_massdrop_ctrl_default/platforms/arm_atsam/eeprom.o
                0x0000000000005fe8                eeprom_write_byte
 .text.eeprom_read_word
                0x000000000000603c       0x18 .build/obj_massdrop_ctrl_default/platforms/arm_atsam/eeprom.o
                0x000000000000603c                eeprom_read_word
 .text.eeprom_read_block
                0x0000000000006054       0x1c .build/obj_massdrop_ctrl_default/platforms/arm_atsam/eeprom.o
                0x0000000000006054                eeprom_read_block
 .text.eeprom_write_word
                0x0000000000006070       0x18 .build/obj_massdrop_ctrl_default/platforms/arm_atsam/eeprom.o
                0x0000000000006070                eeprom_write_word
 .text.eeprom_write_dword
                0x0000000000006088       0x2c .build/obj_massdrop_ctrl_default/platforms/arm_atsam/eeprom.o
                0x0000000000006088                eeprom_write_dword
 .text.eeprom_write_block
                0x00000000000060b4       0x1c .build/obj_massdrop_ctrl_default/platforms/arm_atsam/eeprom.o
                0x00000000000060b4                eeprom_write_block
 .text.eeprom_update_byte
                0x00000000000060d0        0x4 .build/obj_massdrop_ctrl_default/platforms/arm_atsam/eeprom.o
                0x00000000000060d0                eeprom_update_byte
 .text.eeprom_update_word
                0x00000000000060d4        0x4 .build/obj_massdrop_ctrl_default/platforms/arm_atsam/eeprom.o
                0x00000000000060d4                eeprom_update_word
 .text.eeprom_update_dword
                0x00000000000060d8        0x4 .build/obj_massdrop_ctrl_default/platforms/arm_atsam/eeprom.o
                0x00000000000060d8                eeprom_update_dword
 .text.eeprom_update_block
                0x00000000000060dc        0x4 .build/obj_massdrop_ctrl_default/platforms/arm_atsam/eeprom.o
                0x00000000000060dc                eeprom_update_block
 .text.hsv_to_rgb_impl
                0x00000000000060e0       0xdc .build/obj_massdrop_ctrl_default/quantum/color.o
                0x00000000000060e0                hsv_to_rgb_impl
 .text.hsv_to_rgb
                0x00000000000061bc        0xa .build/obj_massdrop_ctrl_default/quantum/color.o
                0x00000000000061bc                hsv_to_rgb
 .text.sqrt16   0x00000000000061c6       0x44 .build/obj_massdrop_ctrl_default/quantum/rgb_matrix/rgb_matrix.o
 *fill*         0x000000000000620a        0x2 
 .text.random8  0x000000000000620c       0x24 .build/obj_massdrop_ctrl_default/quantum/rgb_matrix/rgb_matrix.o
 .text.sin8_C   0x0000000000006230       0x40 .build/obj_massdrop_ctrl_default/quantum/rgb_matrix/rgb_matrix.o
 .text.BAND_SAT_math
                0x0000000000006270       0x58 .build/obj_massdrop_ctrl_default/quantum/rgb_matrix/rgb_matrix.o
 .text.BAND_VAL_math
                0x00000000000062c8       0x58 .build/obj_massdrop_ctrl_default/quantum/rgb_matrix/rgb_matrix.o
 .text.CYCLE_ALL_math
                0x0000000000006320       0x26 .build/obj_massdrop_ctrl_default/quantum/rgb_matrix/rgb_matrix.o
 *fill*         0x0000000000006346        0x2 
 .text.CYCLE_LEFT_RIGHT_math
                0x0000000000006348       0x34 .build/obj_massdrop_ctrl_default/quantum/rgb_matrix/rgb_matrix.o
 .text.CYCLE_UP_DOWN_math
                0x000000000000637c       0x38 .build/obj_massdrop_ctrl_default/quantum/rgb_matrix/rgb_matrix.o
 .text.RAINBOW_MOVING_CHEVRON_math
                0x00000000000063b4       0x50 .build/obj_massdrop_ctrl_default/quantum/rgb_matrix/rgb_matrix.o
 .text.CYCLE_OUT_IN_math
                0x0000000000006404       0x32 .build/obj_massdrop_ctrl_default/quantum/rgb_matrix/rgb_matrix.o
 .text.CYCLE_OUT_IN_DUAL_math
                0x0000000000006436       0x48 .build/obj_massdrop_ctrl_default/quantum/rgb_matrix/rgb_matrix.o
 *fill*         0x000000000000647e        0x2 
 .text.DUAL_BEACON_math
                0x0000000000006480       0x50 .build/obj_massdrop_ctrl_default/quantum/rgb_matrix/rgb_matrix.o
 .text.RAINBOW_BEACON_math
                0x00000000000064d0       0x50 .build/obj_massdrop_ctrl_default/quantum/rgb_matrix/rgb_matrix.o
 .text.RAINBOW_PINWHEELS_math
                0x0000000000006520       0x64 .build/obj_massdrop_ctrl_default/quantum/rgb_matrix/rgb_matrix.o
 .text.HUE_PENDULUM_math
                0x0000000000006584       0x60 .build/obj_massdrop_ctrl_default/quantum/rgb_matrix/rgb_matrix.o
 .text.HUE_WAVE_math
                0x00000000000065e4       0x4c .build/obj_massdrop_ctrl_default/quantum/rgb_matrix/rgb_matrix.o
 .text.SOLID_REACTIVE_SIMPLE_math
                0x0000000000006630       0x34 .build/obj_massdrop_ctrl_default/quantum/rgb_matrix/rgb_matrix.o
 .text.SOLID_REACTIVE_math
                0x0000000000006664       0x34 .build/obj_massdrop_ctrl_default/quantum/rgb_matrix/rgb_matrix.o
 .text.SOLID_REACTIVE_WIDE_math
                0x0000000000006698       0x48 .build/obj_massdrop_ctrl_default/quantum/rgb_matrix/rgb_matrix.o
 .text.SOLID_REACTIVE_CROSS_math
                0x00000000000066e0       0x72 .build/obj_massdrop_ctrl_default/quantum/rgb_matrix/rgb_matrix.o
 *fill*         0x0000000000006752        0x2 
 .text.SOLID_REACTIVE_NEXUS_math
                0x0000000000006754       0x78 .build/obj_massdrop_ctrl_default/quantum/rgb_matrix/rgb_matrix.o
 .text.SPLASH_math
                0x00000000000067cc       0x4e .build/obj_massdrop_ctrl_default/quantum/rgb_matrix/rgb_matrix.o
                0x00000000000067cc                SPLASH_math
 .text.SOLID_SPLASH_math
                0x000000000000681a       0x44 .build/obj_massdrop_ctrl_default/quantum/rgb_matrix/rgb_matrix.o
                0x000000000000681a                SOLID_SPLASH_math
 .text.atan2_8  0x000000000000685e       0x46 .build/obj_massdrop_ctrl_default/quantum/rgb_matrix/rgb_matrix.o
 .text.BAND_PINWHEEL_SAT_math
                0x00000000000068a4       0x48 .build/obj_massdrop_ctrl_default/quantum/rgb_matrix/rgb_matrix.o
 .text.BAND_PINWHEEL_VAL_math
                0x00000000000068ec       0x48 .build/obj_massdrop_ctrl_default/quantum/rgb_matrix/rgb_matrix.o
 .text.BAND_SPIRAL_SAT_math
                0x0000000000006934       0x46 .build/obj_massdrop_ctrl_default/quantum/rgb_matrix/rgb_matrix.o
 .text.BAND_SPIRAL_VAL_math
                0x000000000000697a       0x46 .build/obj_massdrop_ctrl_default/quantum/rgb_matrix/rgb_matrix.o
 .text.CYCLE_PINWHEEL_math
                0x00000000000069c0       0x30 .build/obj_massdrop_ctrl_default/quantum/rgb_matrix/rgb_matrix.o
 .text.CYCLE_SPIRAL_math
                0x00000000000069f0       0x36 .build/obj_massdrop_ctrl_default/quantum/rgb_matrix/rgb_matrix.o
 *fill*         0x0000000000006a26        0x2 
 .text.eeconfig_flush_rgb_matrix.part.1
                0x0000000000006a28       0x1c .build/obj_massdrop_ctrl_default/quantum/rgb_matrix/rgb_matrix.o
 .text.rgb_matrix_hsv_to_rgb
                0x0000000000006a44        0x8 .build/obj_massdrop_ctrl_default/quantum/rgb_matrix/rgb_matrix.o
                0x0000000000006a44                rgb_matrix_hsv_to_rgb
 .text.eeconfig_update_rgb_matrix_default
                0x0000000000006a4c       0x2c .build/obj_massdrop_ctrl_default/quantum/rgb_matrix/rgb_matrix.o
                0x0000000000006a4c                eeconfig_update_rgb_matrix_default
 .text.rgb_matrix_map_row_column_to_led_kb
                0x0000000000006a78        0x4 .build/obj_massdrop_ctrl_default/quantum/rgb_matrix/rgb_matrix.o
                0x0000000000006a78                rgb_matrix_map_row_column_to_led_kb
 .text.rgb_matrix_map_row_column_to_led
                0x0000000000006a7c       0x24 .build/obj_massdrop_ctrl_default/quantum/rgb_matrix/rgb_matrix.o
                0x0000000000006a7c                rgb_matrix_map_row_column_to_led
 .text.rgb_matrix_update_pwm_buffers
                0x0000000000006aa0        0xc .build/obj_massdrop_ctrl_default/quantum/rgb_matrix/rgb_matrix.o
                0x0000000000006aa0                rgb_matrix_update_pwm_buffers
 .text.rgb_matrix_set_color
                0x0000000000006aac       0x14 .build/obj_massdrop_ctrl_default/quantum/rgb_matrix/rgb_matrix.o
                0x0000000000006aac                rgb_matrix_set_color
 .text.effect_runner_dx_dy_dist
                0x0000000000006ac0       0xe4 .build/obj_massdrop_ctrl_default/quantum/rgb_matrix/rgb_matrix.o
                0x0000000000006ac0                effect_runner_dx_dy_dist
 .text.BAND_SPIRAL_SAT
                0x0000000000006ba4        0xc .build/obj_massdrop_ctrl_default/quantum/rgb_matrix/rgb_matrix.o
                0x0000000000006ba4                BAND_SPIRAL_SAT
 .text.BAND_SPIRAL_VAL
                0x0000000000006bb0        0xc .build/obj_massdrop_ctrl_default/quantum/rgb_matrix/rgb_matrix.o
                0x0000000000006bb0                BAND_SPIRAL_VAL
 .text.CYCLE_OUT_IN
                0x0000000000006bbc        0xc .build/obj_massdrop_ctrl_default/quantum/rgb_matrix/rgb_matrix.o
                0x0000000000006bbc                CYCLE_OUT_IN
 .text.CYCLE_SPIRAL
                0x0000000000006bc8        0xc .build/obj_massdrop_ctrl_default/quantum/rgb_matrix/rgb_matrix.o
                0x0000000000006bc8                CYCLE_SPIRAL
 .text.effect_runner_dx_dy
                0x0000000000006bd4       0xc0 .build/obj_massdrop_ctrl_default/quantum/rgb_matrix/rgb_matrix.o
                0x0000000000006bd4                effect_runner_dx_dy
 .text.BAND_PINWHEEL_SAT
                0x0000000000006c94        0xc .build/obj_massdrop_ctrl_default/quantum/rgb_matrix/rgb_matrix.o
                0x0000000000006c94                BAND_PINWHEEL_SAT
 .text.BAND_PINWHEEL_VAL
                0x0000000000006ca0        0xc .build/obj_massdrop_ctrl_default/quantum/rgb_matrix/rgb_matrix.o
                0x0000000000006ca0                BAND_PINWHEEL_VAL
 .text.CYCLE_OUT_IN_DUAL
                0x0000000000006cac        0xc .build/obj_massdrop_ctrl_default/quantum/rgb_matrix/rgb_matrix.o
                0x0000000000006cac                CYCLE_OUT_IN_DUAL
 .text.CYCLE_PINWHEEL
                0x0000000000006cb8        0xc .build/obj_massdrop_ctrl_default/quantum/rgb_matrix/rgb_matrix.o
                0x0000000000006cb8                CYCLE_PINWHEEL
 .text.effect_runner_i
                0x0000000000006cc4       0xa8 .build/obj_massdrop_ctrl_default/quantum/rgb_matrix/rgb_matrix.o
                0x0000000000006cc4                effect_runner_i
 .text.BAND_SAT
                0x0000000000006d6c        0xc .build/obj_massdrop_ctrl_default/quantum/rgb_matrix/rgb_matrix.o
                0x0000000000006d6c                BAND_SAT
 .text.BAND_VAL
                0x0000000000006d78        0xc .build/obj_massdrop_ctrl_default/quantum/rgb_matrix/rgb_matrix.o
                0x0000000000006d78                BAND_VAL
 .text.CYCLE_ALL
                0x0000000000006d84        0xc .build/obj_massdrop_ctrl_default/quantum/rgb_matrix/rgb_matrix.o
                0x0000000000006d84                CYCLE_ALL
 .text.CYCLE_LEFT_RIGHT
                0x0000000000006d90        0xc .build/obj_massdrop_ctrl_default/quantum/rgb_matrix/rgb_matrix.o
                0x0000000000006d90                CYCLE_LEFT_RIGHT
 .text.CYCLE_UP_DOWN
                0x0000000000006d9c        0xc .build/obj_massdrop_ctrl_default/quantum/rgb_matrix/rgb_matrix.o
                0x0000000000006d9c                CYCLE_UP_DOWN
 .text.RAINBOW_MOVING_CHEVRON
                0x0000000000006da8        0xc .build/obj_massdrop_ctrl_default/quantum/rgb_matrix/rgb_matrix.o
                0x0000000000006da8                RAINBOW_MOVING_CHEVRON
 .text.HUE_PENDULUM
                0x0000000000006db4        0xc .build/obj_massdrop_ctrl_default/quantum/rgb_matrix/rgb_matrix.o
                0x0000000000006db4                HUE_PENDULUM
 .text.HUE_WAVE
                0x0000000000006dc0        0xc .build/obj_massdrop_ctrl_default/quantum/rgb_matrix/rgb_matrix.o
                0x0000000000006dc0                HUE_WAVE
 .text.effect_runner_sin_cos_i
                0x0000000000006dcc       0xc8 .build/obj_massdrop_ctrl_default/quantum/rgb_matrix/rgb_matrix.o
                0x0000000000006dcc                effect_runner_sin_cos_i
 .text.DUAL_BEACON
                0x0000000000006e94        0xc .build/obj_massdrop_ctrl_default/quantum/rgb_matrix/rgb_matrix.o
                0x0000000000006e94                DUAL_BEACON
 .text.RAINBOW_BEACON
                0x0000000000006ea0        0xc .build/obj_massdrop_ctrl_default/quantum/rgb_matrix/rgb_matrix.o
                0x0000000000006ea0                RAINBOW_BEACON
 .text.RAINBOW_PINWHEELS
                0x0000000000006eac        0xc .build/obj_massdrop_ctrl_default/quantum/rgb_matrix/rgb_matrix.o
                0x0000000000006eac                RAINBOW_PINWHEELS
 .text.effect_runner_reactive
                0x0000000000006eb8       0xec .build/obj_massdrop_ctrl_default/quantum/rgb_matrix/rgb_matrix.o
                0x0000000000006eb8                effect_runner_reactive
 .text.SOLID_REACTIVE_SIMPLE
                0x0000000000006fa4        0xc .build/obj_massdrop_ctrl_default/quantum/rgb_matrix/rgb_matrix.o
                0x0000000000006fa4                SOLID_REACTIVE_SIMPLE
 .text.SOLID_REACTIVE
                0x0000000000006fb0        0xc .build/obj_massdrop_ctrl_default/quantum/rgb_matrix/rgb_matrix.o
                0x0000000000006fb0                SOLID_REACTIVE
 .text.effect_runner_reactive_splash
                0x0000000000006fbc      0x144 .build/obj_massdrop_ctrl_default/quantum/rgb_matrix/rgb_matrix.o
                0x0000000000006fbc                effect_runner_reactive_splash
 .text.SOLID_REACTIVE_WIDE
                0x0000000000007100       0x20 .build/obj_massdrop_ctrl_default/quantum/rgb_matrix/rgb_matrix.o
                0x0000000000007100                SOLID_REACTIVE_WIDE
 .text.SOLID_REACTIVE_MULTIWIDE
                0x0000000000007120       0x10 .build/obj_massdrop_ctrl_default/quantum/rgb_matrix/rgb_matrix.o
                0x0000000000007120                SOLID_REACTIVE_MULTIWIDE
 .text.SOLID_REACTIVE_CROSS
                0x0000000000007130       0x20 .build/obj_massdrop_ctrl_default/quantum/rgb_matrix/rgb_matrix.o
                0x0000000000007130                SOLID_REACTIVE_CROSS
 .text.SOLID_REACTIVE_MULTICROSS
                0x0000000000007150       0x10 .build/obj_massdrop_ctrl_default/quantum/rgb_matrix/rgb_matrix.o
                0x0000000000007150                SOLID_REACTIVE_MULTICROSS
 .text.SOLID_REACTIVE_NEXUS
                0x0000000000007160       0x20 .build/obj_massdrop_ctrl_default/quantum/rgb_matrix/rgb_matrix.o
                0x0000000000007160                SOLID_REACTIVE_NEXUS
 .text.SOLID_REACTIVE_MULTINEXUS
                0x0000000000007180       0x10 .build/obj_massdrop_ctrl_default/quantum/rgb_matrix/rgb_matrix.o
                0x0000000000007180                SOLID_REACTIVE_MULTINEXUS
 .text.SPLASH   0x0000000000007190       0x20 .build/obj_massdrop_ctrl_default/quantum/rgb_matrix/rgb_matrix.o
                0x0000000000007190                SPLASH
 .text.MULTISPLASH
                0x00000000000071b0       0x10 .build/obj_massdrop_ctrl_default/quantum/rgb_matrix/rgb_matrix.o
                0x00000000000071b0                MULTISPLASH
 .text.SOLID_SPLASH
                0x00000000000071c0       0x20 .build/obj_massdrop_ctrl_default/quantum/rgb_matrix/rgb_matrix.o
                0x00000000000071c0                SOLID_SPLASH
 .text.SOLID_MULTISPLASH
                0x00000000000071e0       0x10 .build/obj_massdrop_ctrl_default/quantum/rgb_matrix/rgb_matrix.o
                0x00000000000071e0                SOLID_MULTISPLASH
 .text.SOLID_COLOR
                0x00000000000071f0       0x84 .build/obj_massdrop_ctrl_default/quantum/rgb_matrix/rgb_matrix.o
                0x00000000000071f0                SOLID_COLOR
 .text.ALPHAS_MODS
                0x0000000000007274       0xcc .build/obj_massdrop_ctrl_default/quantum/rgb_matrix/rgb_matrix.o
                0x0000000000007274                ALPHAS_MODS
 .text.GRADIENT_UP_DOWN
                0x0000000000007340       0x90 .build/obj_massdrop_ctrl_default/quantum/rgb_matrix/rgb_matrix.o
                0x0000000000007340                GRADIENT_UP_DOWN
 .text.GRADIENT_LEFT_RIGHT
                0x00000000000073d0       0x90 .build/obj_massdrop_ctrl_default/quantum/rgb_matrix/rgb_matrix.o
                0x00000000000073d0                GRADIENT_LEFT_RIGHT
 .text.BREATHING
                0x0000000000007460       0xbc .build/obj_massdrop_ctrl_default/quantum/rgb_matrix/rgb_matrix.o
                0x0000000000007460                BREATHING
 .text.raindrops_set_color.isra.2
                0x000000000000751c       0x74 .build/obj_massdrop_ctrl_default/quantum/rgb_matrix/rgb_matrix.o
 .text.RAINDROPS
                0x0000000000007590       0x7c .build/obj_massdrop_ctrl_default/quantum/rgb_matrix/rgb_matrix.o
                0x0000000000007590                RAINDROPS
 .text.jellybean_raindrops_set_color.isra.3
                0x000000000000760c       0x54 .build/obj_massdrop_ctrl_default/quantum/rgb_matrix/rgb_matrix.o
 .text.JELLYBEAN_RAINDROPS
                0x0000000000007660       0x80 .build/obj_massdrop_ctrl_default/quantum/rgb_matrix/rgb_matrix.o
                0x0000000000007660                JELLYBEAN_RAINDROPS
 .text.HUE_BREATHING
                0x00000000000076e0       0xc4 .build/obj_massdrop_ctrl_default/quantum/rgb_matrix/rgb_matrix.o
                0x00000000000076e0                HUE_BREATHING
 .text.rgb_matrix_set_color_all
                0x00000000000077a4        0xc .build/obj_massdrop_ctrl_default/quantum/rgb_matrix/rgb_matrix.o
                0x00000000000077a4                rgb_matrix_set_color_all
 .text.process_rgb_matrix
                0x00000000000077b0       0xd0 .build/obj_massdrop_ctrl_default/quantum/rgb_matrix/rgb_matrix.o
                0x00000000000077b0                process_rgb_matrix
 .text.rgb_matrix_indicators_kb
                0x0000000000007880        0x2 .build/obj_massdrop_ctrl_default/quantum/rgb_matrix/rgb_matrix.o
                0x0000000000007880                rgb_matrix_indicators_kb
 .text.rgb_matrix_indicators_user
                0x0000000000007882        0x2 .build/obj_massdrop_ctrl_default/quantum/rgb_matrix/rgb_matrix.o
                0x0000000000007882                rgb_matrix_indicators_user
 .text.rgb_matrix_indicators
                0x0000000000007884        0xc .build/obj_massdrop_ctrl_default/quantum/rgb_matrix/rgb_matrix.o
                0x0000000000007884                rgb_matrix_indicators
 .text.rgb_matrix_indicators_advanced_user
                0x0000000000007890        0x2 .build/obj_massdrop_ctrl_default/quantum/rgb_matrix/rgb_matrix.o
                0x0000000000007890                rgb_matrix_indicators_advanced_user
 .text.rgb_matrix_indicators_advanced
                0x0000000000007892       0x28 .build/obj_massdrop_ctrl_default/quantum/rgb_matrix/rgb_matrix.o
                0x0000000000007892                rgb_matrix_indicators_advanced
 *fill*         0x00000000000078ba        0x2 
 .text.rgb_matrix_task
                0x00000000000078bc      0x4c0 .build/obj_massdrop_ctrl_default/quantum/rgb_matrix/rgb_matrix.o
                0x00000000000078bc                rgb_matrix_task
 .text.rgb_matrix_init
                0x0000000000007d7c       0xbc .build/obj_massdrop_ctrl_default/quantum/rgb_matrix/rgb_matrix.o
                0x0000000000007d7c                rgb_matrix_init
 .text.rgb_matrix_toggle_eeprom_helper
                0x0000000000007e38       0x28 .build/obj_massdrop_ctrl_default/quantum/rgb_matrix/rgb_matrix.o
                0x0000000000007e38                rgb_matrix_toggle_eeprom_helper
 .text.rgb_matrix_toggle
                0x0000000000007e60        0x6 .build/obj_massdrop_ctrl_default/quantum/rgb_matrix/rgb_matrix.o
                0x0000000000007e60                rgb_matrix_toggle
 *fill*         0x0000000000007e66        0x2 
 .text.rgb_matrix_enable_noeeprom
                0x0000000000007e68       0x24 .build/obj_massdrop_ctrl_default/quantum/rgb_matrix/rgb_matrix.o
                0x0000000000007e68                rgb_matrix_enable_noeeprom
 .text.rgb_matrix_disable_noeeprom
                0x0000000000007e8c       0x20 .build/obj_massdrop_ctrl_default/quantum/rgb_matrix/rgb_matrix.o
                0x0000000000007e8c                rgb_matrix_disable_noeeprom
 .text.rgb_matrix_mode_eeprom_helper
                0x0000000000007eac       0x38 .build/obj_massdrop_ctrl_default/quantum/rgb_matrix/rgb_matrix.o
                0x0000000000007eac                rgb_matrix_mode_eeprom_helper
 .text.rgb_matrix_mode
                0x0000000000007ee4        0x6 .build/obj_massdrop_ctrl_default/quantum/rgb_matrix/rgb_matrix.o
                0x0000000000007ee4                rgb_matrix_mode
 *fill*         0x0000000000007eea        0x2 
 .text.rgb_matrix_step_helper
                0x0000000000007eec       0x1c .build/obj_massdrop_ctrl_default/quantum/rgb_matrix/rgb_matrix.o
                0x0000000000007eec                rgb_matrix_step_helper
 .text.rgb_matrix_step
                0x0000000000007f08        0x6 .build/obj_massdrop_ctrl_default/quantum/rgb_matrix/rgb_matrix.o
                0x0000000000007f08                rgb_matrix_step
 *fill*         0x0000000000007f0e        0x2 
 .text.rgb_matrix_step_reverse_helper
                0x0000000000007f10       0x20 .build/obj_massdrop_ctrl_default/quantum/rgb_matrix/rgb_matrix.o
                0x0000000000007f10                rgb_matrix_step_reverse_helper
 .text.rgb_matrix_step_reverse
                0x0000000000007f30        0x6 .build/obj_massdrop_ctrl_default/quantum/rgb_matrix/rgb_matrix.o
                0x0000000000007f30                rgb_matrix_step_reverse
 *fill*         0x0000000000007f36        0x2 
 .text.rgb_matrix_sethsv_eeprom_helper
                0x0000000000007f38       0x24 .build/obj_massdrop_ctrl_default/quantum/rgb_matrix/rgb_matrix.o
                0x0000000000007f38                rgb_matrix_sethsv_eeprom_helper
 .text.rgb_matrix_increase_hue_helper
                0x0000000000007f5c       0x1c .build/obj_massdrop_ctrl_default/quantum/rgb_matrix/rgb_matrix.o
                0x0000000000007f5c                rgb_matrix_increase_hue_helper
 .text.rgb_matrix_increase_hue
                0x0000000000007f78        0x6 .build/obj_massdrop_ctrl_default/quantum/rgb_matrix/rgb_matrix.o
                0x0000000000007f78                rgb_matrix_increase_hue
 *fill*         0x0000000000007f7e        0x2 
 .text.rgb_matrix_decrease_hue_helper
                0x0000000000007f80       0x1c .build/obj_massdrop_ctrl_default/quantum/rgb_matrix/rgb_matrix.o
                0x0000000000007f80                rgb_matrix_decrease_hue_helper
 .text.rgb_matrix_decrease_hue
                0x0000000000007f9c        0x6 .build/obj_massdrop_ctrl_default/quantum/rgb_matrix/rgb_matrix.o
                0x0000000000007f9c                rgb_matrix_decrease_hue
 *fill*         0x0000000000007fa2        0x2 
 .text.rgb_matrix_increase_sat_helper
                0x0000000000007fa4       0x24 .build/obj_massdrop_ctrl_default/quantum/rgb_matrix/rgb_matrix.o
                0x0000000000007fa4                rgb_matrix_increase_sat_helper
 .text.rgb_matrix_increase_sat
                0x0000000000007fc8        0x6 .build/obj_massdrop_ctrl_default/quantum/rgb_matrix/rgb_matrix.o
                0x0000000000007fc8                rgb_matrix_increase_sat
 *fill*         0x0000000000007fce        0x2 
 .text.rgb_matrix_decrease_sat_helper
                0x0000000000007fd0       0x20 .build/obj_massdrop_ctrl_default/quantum/rgb_matrix/rgb_matrix.o
                0x0000000000007fd0                rgb_matrix_decrease_sat_helper
 .text.rgb_matrix_decrease_sat
                0x0000000000007ff0        0x6 .build/obj_massdrop_ctrl_default/quantum/rgb_matrix/rgb_matrix.o
                0x0000000000007ff0                rgb_matrix_decrease_sat
 *fill*         0x0000000000007ff6        0x2 
 .text.rgb_matrix_increase_val_helper
                0x0000000000007ff8       0x24 .build/obj_massdrop_ctrl_default/quantum/rgb_matrix/rgb_matrix.o
                0x0000000000007ff8                rgb_matrix_increase_val_helper
 .text.rgb_matrix_increase_val
                0x000000000000801c        0x6 .build/obj_massdrop_ctrl_default/quantum/rgb_matrix/rgb_matrix.o
                0x000000000000801c                rgb_matrix_increase_val
 *fill*         0x0000000000008022        0x2 
 .text.rgb_matrix_decrease_val_helper
                0x0000000000008024       0x20 .build/obj_massdrop_ctrl_default/quantum/rgb_matrix/rgb_matrix.o
                0x0000000000008024                rgb_matrix_decrease_val_helper
 .text.rgb_matrix_decrease_val
                0x0000000000008044        0x6 .build/obj_massdrop_ctrl_default/quantum/rgb_matrix/rgb_matrix.o
                0x0000000000008044                rgb_matrix_decrease_val
 *fill*         0x000000000000804a        0x2 
 .text.rgb_matrix_set_speed_eeprom_helper
                0x000000000000804c       0x18 .build/obj_massdrop_ctrl_default/quantum/rgb_matrix/rgb_matrix.o
                0x000000000000804c                rgb_matrix_set_speed_eeprom_helper
 .text.rgb_matrix_increase_speed_helper
                0x0000000000008064       0x18 .build/obj_massdrop_ctrl_default/quantum/rgb_matrix/rgb_matrix.o
                0x0000000000008064                rgb_matrix_increase_speed_helper
 .text.rgb_matrix_increase_speed
                0x000000000000807c        0x6 .build/obj_massdrop_ctrl_default/quantum/rgb_matrix/rgb_matrix.o
                0x000000000000807c                rgb_matrix_increase_speed
 *fill*         0x0000000000008082        0x2 
 .text.rgb_matrix_decrease_speed_helper
                0x0000000000008084       0x18 .build/obj_massdrop_ctrl_default/quantum/rgb_matrix/rgb_matrix.o
                0x0000000000008084                rgb_matrix_decrease_speed_helper
 .text.rgb_matrix_decrease_speed
                0x000000000000809c        0x6 .build/obj_massdrop_ctrl_default/quantum/rgb_matrix/rgb_matrix.o
                0x000000000000809c                rgb_matrix_decrease_speed
 *fill*         0x00000000000080a2        0x2 
 .text.rgb_matrix_get_flags
                0x00000000000080a4        0xc .build/obj_massdrop_ctrl_default/quantum/rgb_matrix/rgb_matrix.o
                0x00000000000080a4                rgb_matrix_get_flags
 .text.rgb_matrix_set_flags
                0x00000000000080b0        0xc .build/obj_massdrop_ctrl_default/quantum/rgb_matrix/rgb_matrix.o
                0x00000000000080b0                rgb_matrix_set_flags
 .text.handleKeycodeRGB
                0x00000000000080bc        0x6 .build/obj_massdrop_ctrl_default/quantum/process_keycode/process_rgb.o
 *fill*         0x00000000000080c2        0x2 
 .text.process_rgb
                0x00000000000080c4      0x120 .build/obj_massdrop_ctrl_default/quantum/process_keycode/process_rgb.o
                0x00000000000080c4                process_rgb
 .text.process_magic
                0x00000000000081e4      0x248 .build/obj_massdrop_ctrl_default/quantum/process_keycode/process_magic.o
                0x00000000000081e4                process_magic
 .text.process_grave_esc
                0x000000000000842c       0x4c .build/obj_massdrop_ctrl_default/quantum/process_keycode/process_grave_esc.o
                0x000000000000842c                process_grave_esc
 .text.perform_space_cadet
                0x0000000000008478       0xb4 .build/obj_massdrop_ctrl_default/quantum/process_keycode/process_space_cadet.o
                0x0000000000008478                perform_space_cadet
 .text.process_space_cadet
                0x000000000000852c       0xa0 .build/obj_massdrop_ctrl_default/quantum/process_keycode/process_space_cadet.o
                0x000000000000852c                process_space_cadet
 .text.host_set_driver
                0x00000000000085cc        0xc .build/obj_massdrop_ctrl_default/protocol/host.o
                0x00000000000085cc                host_set_driver
 .text.host_keyboard_leds
                0x00000000000085d8       0x10 .build/obj_massdrop_ctrl_default/protocol/host.o
                0x00000000000085d8                host_keyboard_leds
 .text.host_keyboard_send
                0x00000000000085e8       0x10 .build/obj_massdrop_ctrl_default/protocol/host.o
                0x00000000000085e8                host_keyboard_send
 .text.host_system_send
                0x00000000000085f8       0x18 .build/obj_massdrop_ctrl_default/protocol/host.o
                0x00000000000085f8                host_system_send
 .text.host_consumer_send
                0x0000000000008610       0x18 .build/obj_massdrop_ctrl_default/protocol/host.o
                0x0000000000008610                host_consumer_send
 .text.has_anykey
                0x0000000000008628       0x3c .build/obj_massdrop_ctrl_default/protocol/report.o
                0x0000000000008628                has_anykey
 .text.is_key_pressed
                0x0000000000008664       0x50 .build/obj_massdrop_ctrl_default/protocol/report.o
                0x0000000000008664                is_key_pressed
 .text.add_key_byte
                0x00000000000086b4       0x32 .build/obj_massdrop_ctrl_default/protocol/report.o
                0x00000000000086b4                add_key_byte
 .text.del_key_byte
                0x00000000000086e6       0x1a .build/obj_massdrop_ctrl_default/protocol/report.o
                0x00000000000086e6                del_key_byte
 .text.add_key_bit
                0x0000000000008700       0x18 .build/obj_massdrop_ctrl_default/protocol/report.o
                0x0000000000008700                add_key_bit
 .text.del_key_bit
                0x0000000000008718       0x1a .build/obj_massdrop_ctrl_default/protocol/report.o
                0x0000000000008718                del_key_bit
 *fill*         0x0000000000008732        0x2 
 .text.add_key_to_report
                0x0000000000008734       0x34 .build/obj_massdrop_ctrl_default/protocol/report.o
                0x0000000000008734                add_key_to_report
 .text.del_key_from_report
                0x0000000000008768       0x34 .build/obj_massdrop_ctrl_default/protocol/report.o
                0x0000000000008768                del_key_from_report
 .text.clear_keys_from_report
                0x000000000000879c       0x2c .build/obj_massdrop_ctrl_default/protocol/report.o
                0x000000000000879c                clear_keys_from_report
 .text.matrix_power_up
                0x00000000000087c8        0x2 .build/obj_massdrop_ctrl_default/platforms/arm_atsam/suspend.o
                0x00000000000087c8                matrix_power_up
 .text.suspend_power_down
                0x00000000000087ca        0xe .build/obj_massdrop_ctrl_default/platforms/arm_atsam/suspend.o
                0x00000000000087ca                suspend_power_down
 .text.matrix_power_down
                0x00000000000087d8        0x2 .build/obj_massdrop_ctrl_default/platforms/arm_atsam/suspend.o
                0x00000000000087d8                matrix_power_down
 .text.suspend_wakeup_condition
                0x00000000000087da       0x24 .build/obj_massdrop_ctrl_default/platforms/arm_atsam/suspend.o
                0x00000000000087da                suspend_wakeup_condition
 .text.suspend_wakeup_init
                0x00000000000087fe        0xe .build/obj_massdrop_ctrl_default/platforms/arm_atsam/suspend.o
                0x00000000000087fe                suspend_wakeup_init
 .text.timer_read
                0x000000000000880c       0x10 .build/obj_massdrop_ctrl_default/platforms/arm_atsam/timer.o
                0x000000000000880c                timer_read
 .text.timer_read32
                0x000000000000881c        0xc .build/obj_massdrop_ctrl_default/platforms/arm_atsam/timer.o
                0x000000000000881c                timer_read32
 .text.timer_read64
                0x0000000000008828        0xc .build/obj_massdrop_ctrl_default/platforms/arm_atsam/timer.o
                0x0000000000008828                timer_read64
 .text.timer_elapsed
                0x0000000000008834       0x10 .build/obj_massdrop_ctrl_default/platforms/arm_atsam/timer.o
                0x0000000000008834                timer_elapsed
 .text.timer_elapsed32
                0x0000000000008844       0x10 .build/obj_massdrop_ctrl_default/platforms/arm_atsam/timer.o
                0x0000000000008844                timer_elapsed32
 .text.timer_clear
                0x0000000000008854       0x10 .build/obj_massdrop_ctrl_default/platforms/arm_atsam/timer.o
                0x0000000000008854                timer_clear
 .text.timer_init
                0x0000000000008864        0x4 .build/obj_massdrop_ctrl_default/platforms/arm_atsam/timer.o
                0x0000000000008864                timer_init
 .text.bootloader_jump
                0x0000000000008868       0xc0 .build/obj_massdrop_ctrl_default/platforms/arm_atsam/bootloader.o
                0x0000000000008868                bootloader_jump
 .text.ADC0_clock_init
                0x0000000000008928       0x40 .build/obj_massdrop_ctrl_default/protocol/arm_atsam/adc.o
                0x0000000000008928                ADC0_clock_init
 .text.ADC0_init
                0x0000000000008968      0x15c .build/obj_massdrop_ctrl_default/protocol/arm_atsam/adc.o
                0x0000000000008968                ADC0_init
 .text.adc_get  0x0000000000008ac4       0x34 .build/obj_massdrop_ctrl_default/protocol/arm_atsam/adc.o
                0x0000000000008ac4                adc_get
 .text.CLK_oscctrl_init
                0x0000000000008af8      0x16c .build/obj_massdrop_ctrl_default/protocol/arm_atsam/clks.o
                0x0000000000008af8                CLK_oscctrl_init
 .text.CLK_set_gclk_freq
                0x0000000000008c64       0xc0 .build/obj_massdrop_ctrl_default/protocol/arm_atsam/clks.o
                0x0000000000008c64                CLK_set_gclk_freq
 .text.CLK_init_osc
                0x0000000000008d24       0x90 .build/obj_massdrop_ctrl_default/protocol/arm_atsam/clks.o
                0x0000000000008d24                CLK_init_osc
 .text.CLK_reset_time
                0x0000000000008db4       0x88 .build/obj_massdrop_ctrl_default/protocol/arm_atsam/clks.o
                0x0000000000008db4                CLK_reset_time
 .text.TC4_Handler
                0x0000000000008e3c       0x28 .build/obj_massdrop_ctrl_default/protocol/arm_atsam/clks.o
                0x0000000000008e3c                TC4_Handler
 .text.CLK_enable_timebase
                0x0000000000008e64      0x1f4 .build/obj_massdrop_ctrl_default/protocol/arm_atsam/clks.o
                0x0000000000008e64                CLK_enable_timebase
 *fill*         0x0000000000009058        0x8 
 .text.CLK_delay_us
                0x0000000000009060       0x1c .build/obj_massdrop_ctrl_default/protocol/arm_atsam/clks.o
                0x0000000000009060                CLK_delay_us
 .text.CLK_delay_ms
                0x000000000000907c       0x1e .build/obj_massdrop_ctrl_default/protocol/arm_atsam/clks.o
                0x000000000000907c                CLK_delay_ms
 *fill*         0x000000000000909a        0x2 
 .text.clk_enable_sercom_apbmask
                0x000000000000909c       0x3c .build/obj_massdrop_ctrl_default/protocol/arm_atsam/clks.o
                0x000000000000909c                clk_enable_sercom_apbmask
 .text.CLK_set_spi_freq
                0x00000000000090d8       0x8c .build/obj_massdrop_ctrl_default/protocol/arm_atsam/clks.o
                0x00000000000090d8                CLK_set_spi_freq
 .text.CLK_set_i2c0_freq
                0x0000000000009164       0x94 .build/obj_massdrop_ctrl_default/protocol/arm_atsam/clks.o
                0x0000000000009164                CLK_set_i2c0_freq
 .text.CLK_set_i2c1_freq
                0x00000000000091f8       0x94 .build/obj_massdrop_ctrl_default/protocol/arm_atsam/clks.o
                0x00000000000091f8                CLK_set_i2c1_freq
 .text.CLK_init
                0x000000000000928c       0x28 .build/obj_massdrop_ctrl_default/protocol/arm_atsam/clks.o
                0x000000000000928c                CLK_init
 .text.dled_print
                0x00000000000092b4      0x184 .build/obj_massdrop_ctrl_default/protocol/arm_atsam/d51_util.o
                0x00000000000092b4                dled_print
 .text.EIC_7_Handler
                0x0000000000009438       0x14 .build/obj_massdrop_ctrl_default/protocol/arm_atsam/d51_util.o
                0x0000000000009438                EIC_7_Handler
 .text.debug_code_init
                0x000000000000944c       0x9c .build/obj_massdrop_ctrl_default/protocol/arm_atsam/d51_util.o
                0x000000000000944c                debug_code_init
 .text.debug_code_disable
                0x00000000000094e8       0x80 .build/obj_massdrop_ctrl_default/protocol/arm_atsam/d51_util.o
                0x00000000000094e8                debug_code_disable
 .text.i2c0_init
                0x0000000000009568       0xb8 .build/obj_massdrop_ctrl_default/protocol/arm_atsam/i2c_master.o
                0x0000000000009568                i2c0_init
 .text.i2c0_start
                0x0000000000009620       0x28 .build/obj_massdrop_ctrl_default/protocol/arm_atsam/i2c_master.o
                0x0000000000009620                i2c0_start
 .text.i2c0_stop
                0x0000000000009648       0x48 .build/obj_massdrop_ctrl_default/protocol/arm_atsam/i2c_master.o
                0x0000000000009648                i2c0_stop
 .text.i2c0_transmit
                0x0000000000009690       0x3c .build/obj_massdrop_ctrl_default/protocol/arm_atsam/i2c_master.o
                0x0000000000009690                i2c0_transmit
 .text.i2c1_init
                0x00000000000096cc       0xd4 .build/obj_massdrop_ctrl_default/protocol/arm_atsam/i2c_master.o
                0x00000000000096cc                i2c1_init
 .text.i2c1_start
                0x00000000000097a0       0x28 .build/obj_massdrop_ctrl_default/protocol/arm_atsam/i2c_master.o
                0x00000000000097a0                i2c1_start
 .text.i2c1_stop
                0x00000000000097c8       0x48 .build/obj_massdrop_ctrl_default/protocol/arm_atsam/i2c_master.o
                0x00000000000097c8                i2c1_stop
 .text.i2c1_transmit
                0x0000000000009810       0x3c .build/obj_massdrop_ctrl_default/protocol/arm_atsam/i2c_master.o
                0x0000000000009810                i2c1_transmit
 .text.i2c_led_send_CRWL
                0x000000000000984c       0x2c .build/obj_massdrop_ctrl_default/protocol/arm_atsam/i2c_master.o
                0x000000000000984c                i2c_led_send_CRWL
 .text.i2c_led_select_page
                0x0000000000009878       0x28 .build/obj_massdrop_ctrl_default/protocol/arm_atsam/i2c_master.o
                0x0000000000009878                i2c_led_select_page
 .text.i2c_led_send_mode_op_gcr
                0x00000000000098a0       0x34 .build/obj_massdrop_ctrl_default/protocol/arm_atsam/i2c_master.o
                0x00000000000098a0                i2c_led_send_mode_op_gcr
 .text.i2c_led_send_pur_pdr
                0x00000000000098d4       0x2c .build/obj_massdrop_ctrl_default/protocol/arm_atsam/i2c_master.o
                0x00000000000098d4                i2c_led_send_pur_pdr
 .text.I2C3733_Init_Drivers
                0x0000000000009900       0x90 .build/obj_massdrop_ctrl_default/protocol/arm_atsam/i2c_master.o
                0x0000000000009900                I2C3733_Init_Drivers
 .text.I2C_DMAC_LED_Init
                0x0000000000009990       0xd0 .build/obj_massdrop_ctrl_default/protocol/arm_atsam/i2c_master.o
                0x0000000000009990                I2C_DMAC_LED_Init
 .text.I2C3733_Control_Set
                0x0000000000009a60       0x2c .build/obj_massdrop_ctrl_default/protocol/arm_atsam/i2c_master.o
                0x0000000000009a60                I2C3733_Control_Set
 .text.I2C3733_Init_Control
                0x0000000000009a8c       0x3c .build/obj_massdrop_ctrl_default/protocol/arm_atsam/i2c_master.o
                0x0000000000009a8c                I2C3733_Init_Control
 .text.i2c_led_desc_defaults
                0x0000000000009ac8       0x48 .build/obj_massdrop_ctrl_default/protocol/arm_atsam/i2c_master.o
                0x0000000000009ac8                i2c_led_desc_defaults
 .text.i2c_led_prepare_send_dma
                0x0000000000009b10       0x24 .build/obj_massdrop_ctrl_default/protocol/arm_atsam/i2c_master.o
                0x0000000000009b10                i2c_led_prepare_send_dma
 .text.i2c_led_begin_dma
                0x0000000000009b34       0x38 .build/obj_massdrop_ctrl_default/protocol/arm_atsam/i2c_master.o
                0x0000000000009b34                i2c_led_begin_dma
 .text.i2c_led_send_CRWL_dma
                0x0000000000009b6c       0x24 .build/obj_massdrop_ctrl_default/protocol/arm_atsam/i2c_master.o
                0x0000000000009b6c                i2c_led_send_CRWL_dma
 .text.i2c_led_select_page_dma
                0x0000000000009b90       0x20 .build/obj_massdrop_ctrl_default/protocol/arm_atsam/i2c_master.o
                0x0000000000009b90                i2c_led_select_page_dma
 .text.i2c_led_send_GCR_dma
                0x0000000000009bb0       0x28 .build/obj_massdrop_ctrl_default/protocol/arm_atsam/i2c_master.o
                0x0000000000009bb0                i2c_led_send_GCR_dma
 .text.i2c_led_send_pwm_dma
                0x0000000000009bd8       0x38 .build/obj_massdrop_ctrl_default/protocol/arm_atsam/i2c_master.o
                0x0000000000009bd8                i2c_led_send_pwm_dma
 .text.i2c_led_send_onoff_dma
                0x0000000000009c10       0x44 .build/obj_massdrop_ctrl_default/protocol/arm_atsam/i2c_master.o
                0x0000000000009c10                i2c_led_send_onoff_dma
 .text.i2c_led_q_init
                0x0000000000009c54       0x2c .build/obj_massdrop_ctrl_default/protocol/arm_atsam/i2c_master.o
                0x0000000000009c54                i2c_led_q_init
 .text.i2c_led_q_isempty
                0x0000000000009c80       0x18 .build/obj_massdrop_ctrl_default/protocol/arm_atsam/i2c_master.o
                0x0000000000009c80                i2c_led_q_isempty
 .text.i2c_led_q_size
                0x0000000000009c98       0x20 .build/obj_massdrop_ctrl_default/protocol/arm_atsam/i2c_master.o
                0x0000000000009c98                i2c_led_q_size
 .text.i2c_led_q_available
                0x0000000000009cb8        0xe .build/obj_massdrop_ctrl_default/protocol/arm_atsam/i2c_master.o
                0x0000000000009cb8                i2c_led_q_available
 *fill*         0x0000000000009cc6        0x2 
 .text.i2c_led_q_add
                0x0000000000009cc8       0x24 .build/obj_massdrop_ctrl_default/protocol/arm_atsam/i2c_master.o
                0x0000000000009cc8                i2c_led_q_add
 .text.i2c_led_q_s_advance
                0x0000000000009cec       0x1c .build/obj_massdrop_ctrl_default/protocol/arm_atsam/i2c_master.o
                0x0000000000009cec                i2c_led_q_s_advance
 .text.i2c_led_q_request_room
                0x0000000000009d08       0x48 .build/obj_massdrop_ctrl_default/protocol/arm_atsam/i2c_master.o
                0x0000000000009d08                i2c_led_q_request_room
 .text.i2c_led_q_run
                0x0000000000009d50       0xbc .build/obj_massdrop_ctrl_default/protocol/arm_atsam/i2c_master.o
                0x0000000000009d50                i2c_led_q_run
 .text.i2c_init
                0x0000000000009e0c       0x18 .build/obj_massdrop_ctrl_default/protocol/arm_atsam/i2c_master.o
                0x0000000000009e0c                i2c_init
 .text.i2c_transmit
                0x0000000000009e24       0x30 .build/obj_massdrop_ctrl_default/protocol/arm_atsam/i2c_master.o
                0x0000000000009e24                i2c_transmit
 .text.led_set_one
                0x0000000000009e54       0x1c .build/obj_massdrop_ctrl_default/protocol/arm_atsam/md_rgb_matrix.o
 .text.flush    0x0000000000009e70       0xe4 .build/obj_massdrop_ctrl_default/protocol/arm_atsam/md_rgb_matrix.o
 .text.led_set_all
                0x0000000000009f54       0x1c .build/obj_massdrop_ctrl_default/protocol/arm_atsam/md_rgb_matrix.o
 .text.SERCOM1_0_Handler
                0x0000000000009f70       0x14 .build/obj_massdrop_ctrl_default/protocol/arm_atsam/md_rgb_matrix.o
                0x0000000000009f70                SERCOM1_0_Handler
 .text.DMAC_0_Handler
                0x0000000000009f84       0x3c .build/obj_massdrop_ctrl_default/protocol/arm_atsam/md_rgb_matrix.o
                0x0000000000009f84                DMAC_0_Handler
 .text.gcr_compute
                0x0000000000009fc0       0xe8 .build/obj_massdrop_ctrl_default/protocol/arm_atsam/md_rgb_matrix.o
                0x0000000000009fc0                gcr_compute
 .text.issi3733_prepare_arrays
                0x000000000000a0a8       0xe0 .build/obj_massdrop_ctrl_default/protocol/arm_atsam/md_rgb_matrix.o
                0x000000000000a0a8                issi3733_prepare_arrays
 .text.md_rgb_matrix_prepare
                0x000000000000a188       0x24 .build/obj_massdrop_ctrl_default/protocol/arm_atsam/md_rgb_matrix.o
                0x000000000000a188                md_rgb_matrix_prepare
 .text.init     0x000000000000a1ac       0x28 .build/obj_massdrop_ctrl_default/protocol/arm_atsam/md_rgb_matrix.o
 .text.md_rgb_matrix_indicators_advanced
                0x000000000000a1d4       0x7c .build/obj_massdrop_ctrl_default/protocol/arm_atsam/md_rgb_matrix.o
                0x000000000000a1d4                md_rgb_matrix_indicators_advanced
 .text.keyboard_leds
                0x000000000000a250       0x20 .build/obj_massdrop_ctrl_default/protocol/arm_atsam/main_arm_atsam.o
                0x000000000000a250                keyboard_leds
 .text.send_mouse
                0x000000000000a270        0x2 .build/obj_massdrop_ctrl_default/protocol/arm_atsam/main_arm_atsam.o
                0x000000000000a270                send_mouse
 *fill*         0x000000000000a272        0x2 
 .text.send_extra
                0x000000000000a274       0x30 .build/obj_massdrop_ctrl_default/protocol/arm_atsam/main_arm_atsam.o
                0x000000000000a274                send_extra
 .text.send_system
                0x000000000000a2a4        0x8 .build/obj_massdrop_ctrl_default/protocol/arm_atsam/main_arm_atsam.o
                0x000000000000a2a4                send_system
 .text.send_consumer
                0x000000000000a2ac        0x8 .build/obj_massdrop_ctrl_default/protocol/arm_atsam/main_arm_atsam.o
                0x000000000000a2ac                send_consumer
 .text.main_subtask_usb_state
                0x000000000000a2b4       0x90 .build/obj_massdrop_ctrl_default/protocol/arm_atsam/main_arm_atsam.o
                0x000000000000a2b4                main_subtask_usb_state
 *fill*         0x000000000000a344        0x4 
 .text.main_subtask_power_check
                0x000000000000a348       0x8c .build/obj_massdrop_ctrl_default/protocol/arm_atsam/main_arm_atsam.o
                0x000000000000a348                main_subtask_power_check
 .text.main_subtask_usb_extra_device
                0x000000000000a3d4       0x30 .build/obj_massdrop_ctrl_default/protocol/arm_atsam/main_arm_atsam.o
                0x000000000000a3d4                main_subtask_usb_extra_device
 .text.main_subtasks
                0x000000000000a404       0x12 .build/obj_massdrop_ctrl_default/protocol/arm_atsam/main_arm_atsam.o
                0x000000000000a404                main_subtasks
 *fill*         0x000000000000a416        0x2 
 .text.send_keyboard
                0x000000000000a418       0x94 .build/obj_massdrop_ctrl_default/protocol/arm_atsam/main_arm_atsam.o
                0x000000000000a418                send_keyboard
 .text.startup.main
                0x000000000000a4ac      0x120 .build/obj_massdrop_ctrl_default/protocol/arm_atsam/main_arm_atsam.o
                0x000000000000a4ac                main
 .text.shift_out_impl
                0x000000000000a5cc       0x22 .build/obj_massdrop_ctrl_default/protocol/arm_atsam/shift_register.o
                0x000000000000a5cc                shift_out_impl
 *fill*         0x000000000000a5ee        0x2 
 .text.shift_enable
                0x000000000000a5f0       0x18 .build/obj_massdrop_ctrl_default/protocol/arm_atsam/shift_register.o
                0x000000000000a5f0                shift_enable
 .text.shift_disable
                0x000000000000a608       0x18 .build/obj_massdrop_ctrl_default/protocol/arm_atsam/shift_register.o
                0x000000000000a608                shift_disable
 .text.shift_init
                0x000000000000a620        0xe .build/obj_massdrop_ctrl_default/protocol/arm_atsam/shift_register.o
                0x000000000000a620                shift_init
 *fill*         0x000000000000a62e        0x2 
 .text.SR_EXP_WriteData
                0x000000000000a630       0x1c .build/obj_massdrop_ctrl_default/protocol/arm_atsam/shift_register.o
                0x000000000000a630                SR_EXP_WriteData
 .text.SR_EXP_Init
                0x000000000000a64c       0x20 .build/obj_massdrop_ctrl_default/protocol/arm_atsam/shift_register.o
                0x000000000000a64c                SR_EXP_Init
 .text.spi_init
                0x000000000000a66c       0x64 .build/obj_massdrop_ctrl_default/protocol/arm_atsam/spi_master.o
                0x000000000000a66c                spi_init
 .text.spi_start
                0x000000000000a6d0       0x8c .build/obj_massdrop_ctrl_default/protocol/arm_atsam/spi_master.o
                0x000000000000a6d0                spi_start
 .text.spi_transmit
                0x000000000000a75c       0x3c .build/obj_massdrop_ctrl_default/protocol/arm_atsam/spi_master.o
                0x000000000000a75c                spi_transmit
 .text.spi_stop
                0x000000000000a798       0x30 .build/obj_massdrop_ctrl_default/protocol/arm_atsam/spi_master.o
                0x000000000000a798                spi_stop
 .text.Dummy_Handler
                0x000000000000a7c8        0x2 .build/obj_massdrop_ctrl_default/protocol/arm_atsam/startup.o
                0x000000000000a7c8                ICM_Handler
                0x000000000000a7c8                SERCOM0_2_Handler
                0x000000000000a7c8                DebugMon_Handler
                0x000000000000a7c8                EIC_13_Handler
                0x000000000000a7c8                EVSYS_0_Handler
                0x000000000000a7c8                TCC1_3_Handler
                0x000000000000a7c8                DAC_3_Handler
                0x000000000000a7c8                TRNG_Handler
                0x000000000000a7c8                HardFault_Handler
                0x000000000000a7c8                TC2_Handler
                0x000000000000a7c8                PDEC_2_Handler
                0x000000000000a7c8                EIC_4_Handler
                0x000000000000a7c8                AC_Handler
                0x000000000000a7c8                SERCOM3_1_Handler
                0x000000000000a7c8                SysTick_Handler
                0x000000000000a7c8                TCC2_3_Handler
                0x000000000000a7c8                SERCOM3_2_Handler
                0x000000000000a7c8                PendSV_Handler
                0x000000000000a7c8                NMI_Handler
                0x000000000000a7c8                ADC1_1_Handler
                0x000000000000a7c8                EVSYS_3_Handler
                0x000000000000a7c8                PDEC_0_Handler
                0x000000000000a7c8                QSPI_Handler
                0x000000000000a7c8                TCC0_0_Handler
                0x000000000000a7c8                EIC_3_Handler
                0x000000000000a7c8                TAL_0_Handler
                0x000000000000a7c8                DAC_2_Handler
                0x000000000000a7c8                SERCOM0_0_Handler
                0x000000000000a7c8                RTC_Handler
                0x000000000000a7c8                UsageFault_Handler
                0x000000000000a7c8                SERCOM4_0_Handler
                0x000000000000a7c8                EIC_10_Handler
                0x000000000000a7c8                SERCOM0_3_Handler
                0x000000000000a7c8                EIC_11_Handler
                0x000000000000a7c8                EIC_9_Handler
                0x000000000000a7c8                OSC32KCTRL_Handler
                0x000000000000a7c8                TCC2_1_Handler
                0x000000000000a7c8                SUPC_1_Handler
                0x000000000000a7c8                TCC0_5_Handler
                0x000000000000a7c8                TCC0_6_Handler
                0x000000000000a7c8                EVSYS_1_Handler
                0x000000000000a7c8                TCC1_4_Handler
                0x000000000000a7c8                WDT_Handler
                0x000000000000a7c8                EIC_8_Handler
                0x000000000000a7c8                EIC_15_Handler
                0x000000000000a7c8                SERCOM5_0_Handler
                0x000000000000a7c8                TC1_Handler
                0x000000000000a7c8                OSCCTRL_4_Handler
                0x000000000000a7c8                SERCOM4_3_Handler
                0x000000000000a7c8                EIC_12_Handler
                0x000000000000a7c8                DMAC_4_Handler
                0x000000000000a7c8                TCC4_2_Handler
                0x000000000000a7c8                PAC_Handler
                0x000000000000a7c8                TCC1_0_Handler
                0x000000000000a7c8                OSCCTRL_0_Handler
                0x000000000000a7c8                EIC_0_Handler
                0x000000000000a7c8                OSCCTRL_3_Handler
                0x000000000000a7c8                SERCOM4_1_Handler
                0x000000000000a7c8                TC3_Handler
                0x000000000000a7c8                Dummy_Handler
                0x000000000000a7c8                TCC3_0_Handler
                0x000000000000a7c8                TCC2_2_Handler
                0x000000000000a7c8                SERCOM5_1_Handler
                0x000000000000a7c8                TCC1_1_Handler
                0x000000000000a7c8                DMAC_2_Handler
                0x000000000000a7c8                ADC0_0_Handler
                0x000000000000a7c8                SERCOM0_1_Handler
                0x000000000000a7c8                OSCCTRL_2_Handler
                0x000000000000a7c8                ADC1_0_Handler
                0x000000000000a7c8                TCC1_2_Handler
                0x000000000000a7c8                PM_Handler
                0x000000000000a7c8                SERCOM2_3_Handler
                0x000000000000a7c8                DAC_4_Handler
                0x000000000000a7c8                TCC3_2_Handler
                0x000000000000a7c8                TCC0_2_Handler
                0x000000000000a7c8                DMAC_1_Handler
                0x000000000000a7c8                TCC4_0_Handler
                0x000000000000a7c8                TCC2_0_Handler
                0x000000000000a7c8                PDEC_1_Handler
                0x000000000000a7c8                MemManage_Handler
                0x000000000000a7c8                TCC4_1_Handler
                0x000000000000a7c8                SERCOM5_3_Handler
                0x000000000000a7c8                SVC_Handler
                0x000000000000a7c8                SDHC0_Handler
                0x000000000000a7c8                SERCOM1_1_Handler
                0x000000000000a7c8                I2S_Handler
                0x000000000000a7c8                EIC_2_Handler
                0x000000000000a7c8                PCC_Handler
                0x000000000000a7c8                DAC_0_Handler
                0x000000000000a7c8                TCC0_1_Handler
                0x000000000000a7c8                SERCOM1_3_Handler
                0x000000000000a7c8                EIC_6_Handler
                0x000000000000a7c8                OSCCTRL_1_Handler
                0x000000000000a7c8                PUKCC_Handler
                0x000000000000a7c8                SERCOM2_1_Handler
                0x000000000000a7c8                SERCOM1_2_Handler
                0x000000000000a7c8                SERCOM3_0_Handler
                0x000000000000a7c8                EIC_1_Handler
                0x000000000000a7c8                SERCOM4_2_Handler
                0x000000000000a7c8                EVSYS_4_Handler
                0x000000000000a7c8                NVMCTRL_1_Handler
                0x000000000000a7c8                SERCOM5_2_Handler
                0x000000000000a7c8                SERCOM3_3_Handler
                0x000000000000a7c8                ADC0_1_Handler
                0x000000000000a7c8                SERCOM2_2_Handler
                0x000000000000a7c8                TCC3_1_Handler
                0x000000000000a7c8                EIC_14_Handler
                0x000000000000a7c8                DAC_1_Handler
                0x000000000000a7c8                NVMCTRL_0_Handler
                0x000000000000a7c8                TAL_1_Handler
                0x000000000000a7c8                MCLK_Handler
                0x000000000000a7c8                EVSYS_2_Handler
                0x000000000000a7c8                SUPC_0_Handler
                0x000000000000a7c8                BusFault_Handler
                0x000000000000a7c8                FREQM_Handler
                0x000000000000a7c8                TC0_Handler
                0x000000000000a7c8                TCC0_3_Handler
                0x000000000000a7c8                DMAC_3_Handler
                0x000000000000a7c8                TCC0_4_Handler
                0x000000000000a7c8                RAMECC_Handler
                0x000000000000a7c8                TC5_Handler
                0x000000000000a7c8                SERCOM2_0_Handler
                0x000000000000a7c8                AES_Handler
                0x000000000000a7c8                EIC_5_Handler
 *fill*         0x000000000000a7ca        0x2 
 .text.Reset_Handler
                0x000000000000a7cc       0x9c .build/obj_massdrop_ctrl_default/protocol/arm_atsam/startup.o
                0x000000000000a7cc                Reset_Handler
 .text.main_suspend_action
                0x000000000000a868        0x4 .build/obj_massdrop_ctrl_default/protocol/arm_atsam/usb/main_usb.o
                0x000000000000a868                main_suspend_action
 .text.main_resume_action
                0x000000000000a86c        0x4 .build/obj_massdrop_ctrl_default/protocol/arm_atsam/usb/main_usb.o
                0x000000000000a86c                main_resume_action
 .text.main_sof_action
                0x000000000000a870        0xe .build/obj_massdrop_ctrl_default/protocol/arm_atsam/usb/main_usb.o
                0x000000000000a870                main_sof_action
 .text.main_remotewakeup_enable
                0x000000000000a87e        0x4 .build/obj_massdrop_ctrl_default/protocol/arm_atsam/usb/main_usb.o
                0x000000000000a87e                main_remotewakeup_enable
 .text.main_remotewakeup_disable
                0x000000000000a882        0x4 .build/obj_massdrop_ctrl_default/protocol/arm_atsam/usb/main_usb.o
                0x000000000000a882                main_remotewakeup_disable
 *fill*         0x000000000000a886        0x2 
 .text.main_kbd_enable
                0x000000000000a888        0xc .build/obj_massdrop_ctrl_default/protocol/arm_atsam/usb/main_usb.o
                0x000000000000a888                main_kbd_enable
 .text.main_kbd_disable
                0x000000000000a894        0xc .build/obj_massdrop_ctrl_default/protocol/arm_atsam/usb/main_usb.o
                0x000000000000a894                main_kbd_disable
 .text.main_nkro_enable
                0x000000000000a8a0        0xc .build/obj_massdrop_ctrl_default/protocol/arm_atsam/usb/main_usb.o
                0x000000000000a8a0                main_nkro_enable
 .text.main_nkro_disable
                0x000000000000a8ac        0xc .build/obj_massdrop_ctrl_default/protocol/arm_atsam/usb/main_usb.o
                0x000000000000a8ac                main_nkro_disable
 .text.main_exk_enable
                0x000000000000a8b8        0xc .build/obj_massdrop_ctrl_default/protocol/arm_atsam/usb/main_usb.o
                0x000000000000a8b8                main_exk_enable
 .text.main_exk_disable
                0x000000000000a8c4        0xc .build/obj_massdrop_ctrl_default/protocol/arm_atsam/usb/main_usb.o
                0x000000000000a8c4                main_exk_disable
 .text.udc_update_iface_desc
                0x000000000000a8d0       0x4c .build/obj_massdrop_ctrl_default/protocol/arm_atsam/usb/udc.o
 .text.udc_valid_address
                0x000000000000a91c       0x10 .build/obj_massdrop_ctrl_default/protocol/arm_atsam/usb/udc.o
 .text.udc_next_desc_in_iface.constprop.0
                0x000000000000a92c       0x28 .build/obj_massdrop_ctrl_default/protocol/arm_atsam/usb/udc.o
 .text.udc_iface_enable
                0x000000000000a954       0x40 .build/obj_massdrop_ctrl_default/protocol/arm_atsam/usb/udc.o
 .text.udc_iface_disable
                0x000000000000a994       0x4c .build/obj_massdrop_ctrl_default/protocol/arm_atsam/usb/udc.o
 .text.udc_get_interface_desc
                0x000000000000a9e0        0xc .build/obj_massdrop_ctrl_default/protocol/arm_atsam/usb/udc.o
                0x000000000000a9e0                udc_get_interface_desc
 .text.udc_start
                0x000000000000a9ec        0x4 .build/obj_massdrop_ctrl_default/protocol/arm_atsam/usb/udc.o
                0x000000000000a9ec                udc_start
 .text.udc_reset
                0x000000000000a9f0       0x3c .build/obj_massdrop_ctrl_default/protocol/arm_atsam/usb/udc.o
                0x000000000000a9f0                udc_reset
 .text.udc_sof_notify
                0x000000000000aa2c       0x30 .build/obj_massdrop_ctrl_default/protocol/arm_atsam/usb/udc.o
                0x000000000000aa2c                udc_sof_notify
 .text.udc_process_setup
                0x000000000000aa5c      0x404 .build/obj_massdrop_ctrl_default/protocol/arm_atsam/usb/udc.o
                0x000000000000aa5c                udc_process_setup
 .text.CDC_print
                0x000000000000ae60        0x4 .build/obj_massdrop_ctrl_default/protocol/arm_atsam/usb/udi_cdc.o
                0x000000000000ae60                CDC_print
 .text.CDC_init
                0x000000000000ae64       0x18 .build/obj_massdrop_ctrl_default/protocol/arm_atsam/usb/udi_cdc.o
                0x000000000000ae64                CDC_init
 .text.udi_hid_setup
                0x000000000000ae7c       0xa4 .build/obj_massdrop_ctrl_default/protocol/arm_atsam/usb/udi_hid.o
                0x000000000000ae7c                udi_hid_setup
 .text.udi_hid_kbd_getsetting
                0x000000000000af20        0x4 .build/obj_massdrop_ctrl_default/protocol/arm_atsam/usb/udi_hid_kbd.o
                0x000000000000af20                udi_hid_kbd_getsetting
 .text.udi_hid_kbd_setreport
                0x000000000000af24       0x34 .build/obj_massdrop_ctrl_default/protocol/arm_atsam/usb/udi_hid_kbd.o
 .text.udi_hid_kbd_setreport_valid
                0x000000000000af58        0x2 .build/obj_massdrop_ctrl_default/protocol/arm_atsam/usb/udi_hid_kbd.o
 *fill*         0x000000000000af5a        0x2 
 .text.udi_hid_nkro_setreport
                0x000000000000af5c       0x34 .build/obj_massdrop_ctrl_default/protocol/arm_atsam/usb/udi_hid_kbd.o
 .text.udi_hid_exk_setreport
                0x000000000000af90       0x34 .build/obj_massdrop_ctrl_default/protocol/arm_atsam/usb/udi_hid_kbd.o
 .text.udi_hid_kbd_enable
                0x000000000000afc4       0x2c .build/obj_massdrop_ctrl_default/protocol/arm_atsam/usb/udi_hid_kbd.o
                0x000000000000afc4                udi_hid_kbd_enable
 .text.udi_hid_kbd_disable
                0x000000000000aff0        0x4 .build/obj_massdrop_ctrl_default/protocol/arm_atsam/usb/udi_hid_kbd.o
                0x000000000000aff0                udi_hid_kbd_disable
 .text.udi_hid_kbd_setup
                0x000000000000aff4       0x18 .build/obj_massdrop_ctrl_default/protocol/arm_atsam/usb/udi_hid_kbd.o
                0x000000000000aff4                udi_hid_kbd_setup
 .text.udi_hid_nkro_setup
                0x000000000000b00c       0x1c .build/obj_massdrop_ctrl_default/protocol/arm_atsam/usb/udi_hid_kbd.o
                0x000000000000b00c                udi_hid_nkro_setup
 .text.udi_hid_exk_setup
                0x000000000000b028       0x1c .build/obj_massdrop_ctrl_default/protocol/arm_atsam/usb/udi_hid_kbd.o
                0x000000000000b028                udi_hid_exk_setup
 .text.udi_hid_nkro_enable
                0x000000000000b044       0x34 .build/obj_massdrop_ctrl_default/protocol/arm_atsam/usb/udi_hid_kbd.o
                0x000000000000b044                udi_hid_nkro_enable
 .text.udi_hid_nkro_disable
                0x000000000000b078        0x4 .build/obj_massdrop_ctrl_default/protocol/arm_atsam/usb/udi_hid_kbd.o
                0x000000000000b078                udi_hid_nkro_disable
 .text.udi_hid_exk_enable
                0x000000000000b07c       0x24 .build/obj_massdrop_ctrl_default/protocol/arm_atsam/usb/udi_hid_kbd.o
                0x000000000000b07c                udi_hid_exk_enable
 .text.udi_hid_exk_disable
                0x000000000000b0a0        0x4 .build/obj_massdrop_ctrl_default/protocol/arm_atsam/usb/udi_hid_kbd.o
                0x000000000000b0a0                udi_hid_exk_disable
 .text.udi_hid_exk_setreport_valid
                0x000000000000b0a4        0x2 .build/obj_massdrop_ctrl_default/protocol/arm_atsam/usb/udi_hid_kbd.o
 .text.udi_hid_nkro_setreport_valid
                0x000000000000b0a6        0x2 .build/obj_massdrop_ctrl_default/protocol/arm_atsam/usb/udi_hid_kbd.o
 .text.udi_hid_exk_getsetting
                0x000000000000b0a8        0x4 .build/obj_massdrop_ctrl_default/protocol/arm_atsam/usb/udi_hid_kbd.o
                0x000000000000b0a8                udi_hid_exk_getsetting
 .text.udi_hid_nkro_getsetting
                0x000000000000b0ac        0x4 .build/obj_massdrop_ctrl_default/protocol/arm_atsam/usb/udi_hid_kbd.o
                0x000000000000b0ac                udi_hid_nkro_getsetting
 .text.udi_hid_kbd_send_report
                0x000000000000b0b0       0x5c .build/obj_massdrop_ctrl_default/protocol/arm_atsam/usb/udi_hid_kbd.o
                0x000000000000b0b0                udi_hid_kbd_send_report
 .text.udi_hid_kbd_report_sent
                0x000000000000b10c       0x1c .build/obj_massdrop_ctrl_default/protocol/arm_atsam/usb/udi_hid_kbd.o
 .text.udi_hid_nkro_send_report
                0x000000000000b128       0x64 .build/obj_massdrop_ctrl_default/protocol/arm_atsam/usb/udi_hid_kbd.o
                0x000000000000b128                udi_hid_nkro_send_report
 .text.udi_hid_nkro_report_sent
                0x000000000000b18c       0x1c .build/obj_massdrop_ctrl_default/protocol/arm_atsam/usb/udi_hid_kbd.o
 .text.udi_hid_exk_send_report
                0x000000000000b1a8       0x54 .build/obj_massdrop_ctrl_default/protocol/arm_atsam/usb/udi_hid_kbd.o
                0x000000000000b1a8                udi_hid_exk_send_report
 .text.udi_hid_exk_report_sent
                0x000000000000b1fc       0x1c .build/obj_massdrop_ctrl_default/protocol/arm_atsam/usb/udi_hid_kbd.o
 .text.ui_powerdown
                0x000000000000b218        0x2 .build/obj_massdrop_ctrl_default/protocol/arm_atsam/usb/ui.o
                0x000000000000b218                ui_powerdown
 .text.ui_wakeup_enable
                0x000000000000b21a        0x2 .build/obj_massdrop_ctrl_default/protocol/arm_atsam/usb/ui.o
                0x000000000000b21a                ui_wakeup_enable
 .text.ui_wakeup_disable
                0x000000000000b21c        0x2 .build/obj_massdrop_ctrl_default/protocol/arm_atsam/usb/ui.o
                0x000000000000b21c                ui_wakeup_disable
 .text.ui_wakeup
                0x000000000000b21e        0x2 .build/obj_massdrop_ctrl_default/protocol/arm_atsam/usb/ui.o
                0x000000000000b21e                ui_wakeup
 .text.ui_process
                0x000000000000b220        0x2 .build/obj_massdrop_ctrl_default/protocol/arm_atsam/usb/ui.o
                0x000000000000b220                ui_process
 *fill*         0x000000000000b222        0x2 
 .text._usb_device_interrupt_handler
                0x000000000000b224      0x208 .build/obj_massdrop_ctrl_default/protocol/arm_atsam/usb/usb.o
 .text.usb_device_register_callback
                0x000000000000b42c       0x20 .build/obj_massdrop_ctrl_default/protocol/arm_atsam/usb/usb.o
                0x000000000000b42c                usb_device_register_callback
 .text.usb_device_enable_callback
                0x000000000000b44c       0x20 .build/obj_massdrop_ctrl_default/protocol/arm_atsam/usb/usb.o
                0x000000000000b44c                usb_device_enable_callback
 .text.usb_device_disable_callback
                0x000000000000b46c       0x20 .build/obj_massdrop_ctrl_default/protocol/arm_atsam/usb/usb.o
                0x000000000000b46c                usb_device_disable_callback
 .text.usb_device_endpoint_register_callback
                0x000000000000b48c       0x28 .build/obj_massdrop_ctrl_default/protocol/arm_atsam/usb/usb.o
                0x000000000000b48c                usb_device_endpoint_register_callback
 .text.usb_device_endpoint_unregister_callback
                0x000000000000b4b4       0x2c .build/obj_massdrop_ctrl_default/protocol/arm_atsam/usb/usb.o
                0x000000000000b4b4                usb_device_endpoint_unregister_callback
 .text.usb_device_endpoint_enable_callback
                0x000000000000b4e0       0x88 .build/obj_massdrop_ctrl_default/protocol/arm_atsam/usb/usb.o
                0x000000000000b4e0                usb_device_endpoint_enable_callback
 .text.usb_device_endpoint_disable_callback
                0x000000000000b568       0x88 .build/obj_massdrop_ctrl_default/protocol/arm_atsam/usb/usb.o
                0x000000000000b568                usb_device_endpoint_disable_callback
 .text.usb_device_endpoint_get_config_defaults
                0x000000000000b5f0        0xe .build/obj_massdrop_ctrl_default/protocol/arm_atsam/usb/usb.o
                0x000000000000b5f0                usb_device_endpoint_get_config_defaults
 *fill*         0x000000000000b5fe        0x2 
 .text.usb_device_endpoint_set_config
                0x000000000000b600      0x180 .build/obj_massdrop_ctrl_default/protocol/arm_atsam/usb/usb.o
                0x000000000000b600                usb_device_endpoint_set_config
 .text.usb_device_endpoint_abort_job
                0x000000000000b780       0x2c .build/obj_massdrop_ctrl_default/protocol/arm_atsam/usb/usb.o
                0x000000000000b780                usb_device_endpoint_abort_job
 .text.usb_device_endpoint_is_halted
                0x000000000000b7ac       0x1e .build/obj_massdrop_ctrl_default/protocol/arm_atsam/usb/usb.o
                0x000000000000b7ac                usb_device_endpoint_is_halted
 .text.usb_device_endpoint_set_halt
                0x000000000000b7ca       0x1a .build/obj_massdrop_ctrl_default/protocol/arm_atsam/usb/usb.o
                0x000000000000b7ca                usb_device_endpoint_set_halt
 .text.usb_device_endpoint_clear_halt
                0x000000000000b7e4       0x6a .build/obj_massdrop_ctrl_default/protocol/arm_atsam/usb/usb.o
                0x000000000000b7e4                usb_device_endpoint_clear_halt
 *fill*         0x000000000000b84e        0x2 
 .text.usb_device_endpoint_write_buffer_job
                0x000000000000b850       0x40 .build/obj_massdrop_ctrl_default/protocol/arm_atsam/usb/usb.o
                0x000000000000b850                usb_device_endpoint_write_buffer_job
 .text.usb_device_endpoint_read_buffer_job
                0x000000000000b890       0x3c .build/obj_massdrop_ctrl_default/protocol/arm_atsam/usb/usb.o
                0x000000000000b890                usb_device_endpoint_read_buffer_job
 .text.usb_device_endpoint_setup_buffer_job
                0x000000000000b8cc       0x28 .build/obj_massdrop_ctrl_default/protocol/arm_atsam/usb/usb.o
                0x000000000000b8cc                usb_device_endpoint_setup_buffer_job
 .text.usb_enable
                0x000000000000b8f4       0x14 .build/obj_massdrop_ctrl_default/protocol/arm_atsam/usb/usb.o
                0x000000000000b8f4                usb_enable
 .text.USB_0_Handler
                0x000000000000b908       0x18 .build/obj_massdrop_ctrl_default/protocol/arm_atsam/usb/usb.o
                0x000000000000b908                USB_0_Handler
 .text.USB_1_Handler
                0x000000000000b920        0x4 .build/obj_massdrop_ctrl_default/protocol/arm_atsam/usb/usb.o
                0x000000000000b920                USB_1_Handler
 .text.USB_2_Handler
                0x000000000000b924        0x4 .build/obj_massdrop_ctrl_default/protocol/arm_atsam/usb/usb.o
                0x000000000000b924                USB_2_Handler
 .text.USB_3_Handler
                0x000000000000b928        0x4 .build/obj_massdrop_ctrl_default/protocol/arm_atsam/usb/usb.o
                0x000000000000b928                USB_3_Handler
 .text.usb_get_config_defaults
                0x000000000000b92c        0xe .build/obj_massdrop_ctrl_default/protocol/arm_atsam/usb/usb.o
                0x000000000000b92c                usb_get_config_defaults
 *fill*         0x000000000000b93a        0x2 
 .text.usb_init
                0x000000000000b93c      0x1fc .build/obj_massdrop_ctrl_default/protocol/arm_atsam/usb/usb.o
                0x000000000000b93c                usb_init
 .text.udd_ep_get_job
                0x000000000000bb38       0x24 .build/obj_massdrop_ctrl_default/protocol/arm_atsam/usb/usb_device_udd.o
 .text.udd_ep_transfer_process
                0x000000000000bb5c      0x138 .build/obj_massdrop_ctrl_default/protocol/arm_atsam/usb/usb_device_udd.o
 .text.udd_ctrl_stall_data
                0x000000000000bc94       0x28 .build/obj_massdrop_ctrl_default/protocol/arm_atsam/usb/usb_device_udd.o
 .text._usb_on_wakeup
                0x000000000000bcbc       0x20 .build/obj_massdrop_ctrl_default/protocol/arm_atsam/usb/usb_device_udd.o
 .text._usb_on_bus_reset
                0x000000000000bcdc       0x8c .build/obj_massdrop_ctrl_default/protocol/arm_atsam/usb/usb_device_udd.o
 .text.udd_ctrl_send_zlp_in
                0x000000000000bd68       0x38 .build/obj_massdrop_ctrl_default/protocol/arm_atsam/usb/usb_device_udd.o
 .text._usb_ep0_on_tansfer_fail
                0x000000000000bda0       0x38 .build/obj_massdrop_ctrl_default/protocol/arm_atsam/usb/usb_device_udd.o
 .text.udd_ctrl_in_sent
                0x000000000000bdd8       0x8c .build/obj_massdrop_ctrl_default/protocol/arm_atsam/usb/usb_device_udd.o
 .text._usb_ep0_on_setup
                0x000000000000be64       0xbc .build/obj_massdrop_ctrl_default/protocol/arm_atsam/usb/usb_device_udd.o
 .text._usb_on_sof_notify
                0x000000000000bf20        0xe .build/obj_massdrop_ctrl_default/protocol/arm_atsam/usb/usb_device_udd.o
 *fill*         0x000000000000bf2e        0x2 
 .text._usb_on_suspend
                0x000000000000bf30       0x20 .build/obj_massdrop_ctrl_default/protocol/arm_atsam/usb/usb_device_udd.o
 .text.udd_ep_abort
                0x000000000000bf50       0x34 .build/obj_massdrop_ctrl_default/protocol/arm_atsam/usb/usb_device_udd.o
                0x000000000000bf50                udd_ep_abort
 .text.udd_get_frame_number
                0x000000000000bf84       0x10 .build/obj_massdrop_ctrl_default/protocol/arm_atsam/usb/usb_device_udd.o
                0x000000000000bf84                udd_get_frame_number
 .text.udd_ep_free
                0x000000000000bf94       0x44 .build/obj_massdrop_ctrl_default/protocol/arm_atsam/usb/usb_device_udd.o
                0x000000000000bf94                udd_ep_free
 .text.udd_ep_alloc
                0x000000000000bfd8       0xc0 .build/obj_massdrop_ctrl_default/protocol/arm_atsam/usb/usb_device_udd.o
                0x000000000000bfd8                udd_ep_alloc
 .text.udd_ep_is_halted
                0x000000000000c098        0xc .build/obj_massdrop_ctrl_default/protocol/arm_atsam/usb/usb_device_udd.o
                0x000000000000c098                udd_ep_is_halted
 .text.udd_ep_set_halt
                0x000000000000c0a4       0x28 .build/obj_massdrop_ctrl_default/protocol/arm_atsam/usb/usb_device_udd.o
                0x000000000000c0a4                udd_ep_set_halt
 .text._usb_ep0_on_tansfer_ok
                0x000000000000c0cc       0xcc .build/obj_massdrop_ctrl_default/protocol/arm_atsam/usb/usb_device_udd.o
 .text.udd_ep_clear_halt
                0x000000000000c198       0x34 .build/obj_massdrop_ctrl_default/protocol/arm_atsam/usb/usb_device_udd.o
                0x000000000000c198                udd_ep_clear_halt
 .text.udd_ep_run
                0x000000000000c1cc      0x140 .build/obj_massdrop_ctrl_default/protocol/arm_atsam/usb/usb_device_udd.o
                0x000000000000c1cc                udd_ep_run
 .text.udd_set_address
                0x000000000000c30c       0x10 .build/obj_massdrop_ctrl_default/protocol/arm_atsam/usb/usb_device_udd.o
                0x000000000000c30c                udd_set_address
 .text.udd_getaddress
                0x000000000000c31c       0x10 .build/obj_massdrop_ctrl_default/protocol/arm_atsam/usb/usb_device_udd.o
                0x000000000000c31c                udd_getaddress
 .text.udd_send_remotewakeup
                0x000000000000c32c       0x20 .build/obj_massdrop_ctrl_default/protocol/arm_atsam/usb/usb_device_udd.o
                0x000000000000c32c                udd_send_remotewakeup
 .text.udd_set_setup_payload
                0x000000000000c34c        0xc .build/obj_massdrop_ctrl_default/protocol/arm_atsam/usb/usb_device_udd.o
                0x000000000000c34c                udd_set_setup_payload
 .text.udd_attach
                0x000000000000c358       0x74 .build/obj_massdrop_ctrl_default/protocol/arm_atsam/usb/usb_device_udd.o
                0x000000000000c358                udd_attach
 .text.udd_enable
                0x000000000000c3cc       0x40 .build/obj_massdrop_ctrl_default/protocol/arm_atsam/usb/usb_device_udd.o
                0x000000000000c3cc                udd_enable
 .text.USB_Hub_init
                0x000000000000c40c      0x21c .build/obj_massdrop_ctrl_default/protocol/arm_atsam/usb/usb_hub.o
                0x000000000000c40c                USB_Hub_init
 .text.USB_reset
                0x000000000000c628       0x38 .build/obj_massdrop_ctrl_default/protocol/arm_atsam/usb/usb_hub.o
                0x000000000000c628                USB_reset
 .text.USB_configure
                0x000000000000c660       0x20 .build/obj_massdrop_ctrl_default/protocol/arm_atsam/usb/usb_hub.o
                0x000000000000c660                USB_configure
 .text.USB_set_host_by_voltage
                0x000000000000c680       0xe4 .build/obj_massdrop_ctrl_default/protocol/arm_atsam/usb/usb_hub.o
                0x000000000000c680                USB_set_host_by_voltage
 .text.USB_Hub_Port_Detect_Init
                0x000000000000c764       0x98 .build/obj_massdrop_ctrl_default/protocol/arm_atsam/usb/usb_hub.o
                0x000000000000c764                USB_Hub_Port_Detect_Init
 .text.USB_ExtraSetState
                0x000000000000c7fc       0x80 .build/obj_massdrop_ctrl_default/protocol/arm_atsam/usb/usb_hub.o
                0x000000000000c7fc                USB_ExtraSetState
 *fill*         0x000000000000c87c        0x4 
 .text.USB_HandleExtraDevice
                0x000000000000c880       0xb0 .build/obj_massdrop_ctrl_default/protocol/arm_atsam/usb/usb_hub.o
                0x000000000000c880                USB_HandleExtraDevice
 .text.USB2422_strcpy
                0x000000000000c930       0x14 .build/obj_massdrop_ctrl_default/drivers/usb2422.o
 .text.USB2422_init
                0x000000000000c944       0x1c .build/obj_massdrop_ctrl_default/drivers/usb2422.o
                0x000000000000c944                USB2422_init
 .text.USB2422_configure
                0x000000000000c960       0xc0 .build/obj_massdrop_ctrl_default/drivers/usb2422.o
                0x000000000000c960                USB2422_configure
 .text.USB2422_active
                0x000000000000ca20       0x10 .build/obj_massdrop_ctrl_default/drivers/usb2422.o
                0x000000000000ca20                USB2422_active
 .text          0x000000000000ca30      0x378 /opt/homebrew/Cellar/arm-gcc-bin@8/8-2019-q3-update_1/bin/../lib/gcc/arm-none-eabi/8.3.1/thumb/v7e-m+fp/hard/libgcc.a(_arm_addsubdf3.o)
                0x000000000000ca30                __aeabi_drsub
                0x000000000000ca38                __subdf3
                0x000000000000ca38                __aeabi_dsub
                0x000000000000ca3c                __aeabi_dadd
                0x000000000000ca3c                __adddf3
                0x000000000000ccb4                __aeabi_ui2d
                0x000000000000ccb4                __floatunsidf
                0x000000000000ccd4                __floatsidf
                0x000000000000ccd4                __aeabi_i2d
                0x000000000000ccf8                __extendsfdf2
                0x000000000000ccf8                __aeabi_f2d
                0x000000000000cd3c                __aeabi_ul2d
                0x000000000000cd3c                __floatundidf
                0x000000000000cd4c                __aeabi_l2d
                0x000000000000cd4c                __floatdidf
 .text          0x000000000000cda8      0x424 /opt/homebrew/Cellar/arm-gcc-bin@8/8-2019-q3-update_1/bin/../lib/gcc/arm-none-eabi/8.3.1/thumb/v7e-m+fp/hard/libgcc.a(_arm_muldivdf3.o)
                0x000000000000cda8                __aeabi_dmul
                0x000000000000cda8                __muldf3
                0x000000000000cffc                __aeabi_ddiv
                0x000000000000cffc                __divdf3
 .text          0x000000000000d1cc       0x40 /opt/homebrew/Cellar/arm-gcc-bin@8/8-2019-q3-update_1/bin/../lib/gcc/arm-none-eabi/8.3.1/thumb/v7e-m+fp/hard/libgcc.a(_arm_fixunsdfsi.o)
                0x000000000000d1cc                __fixunsdfsi
                0x000000000000d1cc                __aeabi_d2uiz
 .text          0x000000000000d20c       0x30 /opt/homebrew/Cellar/arm-gcc-bin@8/8-2019-q3-update_1/bin/../lib/gcc/arm-none-eabi/8.3.1/thumb/v7e-m+fp/hard/libgcc.a(_aeabi_uldivmod.o)
                0x000000000000d20c                __aeabi_uldivmod
 .text          0x000000000000d23c      0x2d0 /opt/homebrew/Cellar/arm-gcc-bin@8/8-2019-q3-update_1/bin/../lib/gcc/arm-none-eabi/8.3.1/thumb/v7e-m+fp/hard/libgcc.a(_udivmoddi4.o)
                0x000000000000d23c                __udivmoddi4
 .text          0x000000000000d50c        0x4 /opt/homebrew/Cellar/arm-gcc-bin@8/8-2019-q3-update_1/bin/../lib/gcc/arm-none-eabi/8.3.1/thumb/v7e-m+fp/hard/libgcc.a(_dvmd_tls.o)
                0x000000000000d50c                __aeabi_ldiv0
                0x000000000000d50c                __aeabi_idiv0
 .text.__libc_init_array
                0x000000000000d510       0x48 /opt/homebrew/Cellar/arm-gcc-bin@8/8-2019-q3-update_1/bin/../lib/gcc/arm-none-eabi/8.3.1/../../../../arm-none-eabi/lib/thumb/v7e-m+fp/hard/libg.a(lib_a-init.o)
                0x000000000000d510                __libc_init_array
 .text.memcmp   0x000000000000d558       0x60 /opt/homebrew/Cellar/arm-gcc-bin@8/8-2019-q3-update_1/bin/../lib/gcc/arm-none-eabi/8.3.1/../../../../arm-none-eabi/lib/thumb/v7e-m+fp/hard/libg.a(lib_a-memcmp.o)
                0x000000000000d558                memcmp
 .text          0x000000000000d5b8      0x134 /opt/homebrew/Cellar/arm-gcc-bin@8/8-2019-q3-update_1/bin/../lib/gcc/arm-none-eabi/8.3.1/../../../../arm-none-eabi/lib/thumb/v7e-m+fp/hard/libg.a(lib_a-memcpy.o)
                0x000000000000d5b8                memcpy
 .text.memset   0x000000000000d6ec       0xa0 /opt/homebrew/Cellar/arm-gcc-bin@8/8-2019-q3-update_1/bin/../lib/gcc/arm-none-eabi/8.3.1/../../../../arm-none-eabi/lib/thumb/v7e-m+fp/hard/libg.a(lib_a-memset.o)
                0x000000000000d6ec                memset
 .text.rand     0x000000000000d78c       0x3c /opt/homebrew/Cellar/arm-gcc-bin@8/8-2019-q3-update_1/bin/../lib/gcc/arm-none-eabi/8.3.1/../../../../arm-none-eabi/lib/thumb/v7e-m+fp/hard/libg.a(lib_a-rand.o)
                0x000000000000d78c                rand
 .text.startup.register_fini
                0x000000000000d7c8       0x14 /opt/homebrew/Cellar/arm-gcc-bin@8/8-2019-q3-update_1/bin/../lib/gcc/arm-none-eabi/8.3.1/../../../../arm-none-eabi/lib/thumb/v7e-m+fp/hard/libg.a(lib_a-__call_atexit.o)
 .text.atexit   0x000000000000d7dc        0xc /opt/homebrew/Cellar/arm-gcc-bin@8/8-2019-q3-update_1/bin/../lib/gcc/arm-none-eabi/8.3.1/../../../../arm-none-eabi/lib/thumb/v7e-m+fp/hard/libg.a(lib_a-atexit.o)
                0x000000000000d7dc                atexit
 .text.__libc_fini_array
                0x000000000000d7e8       0x34 /opt/homebrew/Cellar/arm-gcc-bin@8/8-2019-q3-update_1/bin/../lib/gcc/arm-none-eabi/8.3.1/../../../../arm-none-eabi/lib/thumb/v7e-m+fp/hard/libg.a(lib_a-fini.o)
                0x000000000000d7e8                __libc_fini_array
 .text.__retarget_lock_acquire_recursive
                0x000000000000d81c        0x4 /opt/homebrew/Cellar/arm-gcc-bin@8/8-2019-q3-update_1/bin/../lib/gcc/arm-none-eabi/8.3.1/../../../../arm-none-eabi/lib/thumb/v7e-m+fp/hard/libg.a(lib_a-lock.o)
                0x000000000000d81c                __retarget_lock_acquire_recursive
 .text.__retarget_lock_release_recursive
                0x000000000000d820        0x4 /opt/homebrew/Cellar/arm-gcc-bin@8/8-2019-q3-update_1/bin/../lib/gcc/arm-none-eabi/8.3.1/../../../../arm-none-eabi/lib/thumb/v7e-m+fp/hard/libg.a(lib_a-lock.o)
                0x000000000000d820                __retarget_lock_release_recursive
 .text.__register_exitproc
                0x000000000000d824       0x88 /opt/homebrew/Cellar/arm-gcc-bin@8/8-2019-q3-update_1/bin/../lib/gcc/arm-none-eabi/8.3.1/../../../../arm-none-eabi/lib/thumb/v7e-m+fp/hard/libg.a(lib_a-__atexit.o)
                0x000000000000d824                __register_exitproc
 *(.glue_7t)
 .glue_7t       0x000000000000d8ac        0x0 linker stubs
 *(.glue_7)
 .glue_7        0x000000000000d8ac        0x0 linker stubs
 *(.rodata .rodata* .gnu.linkonce.r.*)
 .rodata        0x000000000000d8ac      0x160 .build/obj_massdrop_ctrl_default/keyboards/massdrop/ctrl/keymaps/default/keymap.o
                0x000000000000d8ac                keymaps
 .rodata        0x000000000000da0c       0x32 .build/obj_massdrop_ctrl_default/quantum/action.o
 .rodata        0x000000000000da3e       0x32 .build/obj_massdrop_ctrl_default/quantum/keymap_common.o
                0x000000000000da70                fn_actions
 .rodata        0x000000000000da70       0x13 .build/obj_massdrop_ctrl_default/quantum/matrix.o
 *fill*         0x000000000000da83        0x1 
 .rodata        0x000000000000da84      0x160 .build/obj_massdrop_ctrl_default/platforms/arm_atsam/eeprom.o
 .rodata        0x000000000000dbe4        0xd .build/obj_massdrop_ctrl_default/quantum/rgb_matrix/rgb_matrix.o
                0x000000000000dbef                k_rgb_matrix_center
 .rodata        0x000000000000dbf1      0x100 .build/obj_massdrop_ctrl_default/quantum/led_tables.o
                0x000000000000dbf1                CIE1931_CURVE
 .rodata.str1.1
                0x000000000000dcf1       0x1a .build/obj_massdrop_ctrl_default/platforms/arm_atsam/bootloader.o
 *fill*         0x000000000000dd0b        0x1 
 .rodata        0x000000000000dd0c       0x1e .build/obj_massdrop_ctrl_default/protocol/arm_atsam/clks.o
                0x000000000000dd0c                sercom_apbbase
                0x000000000000dd24                sercom_pchan
 .rodata        0x000000000000dd2a        0x2 .build/obj_massdrop_ctrl_default/protocol/arm_atsam/i2c_master.o
 .rodata        0x000000000000dd2c       0x10 .build/obj_massdrop_ctrl_default/protocol/arm_atsam/md_rgb_matrix.o
                0x000000000000dd2c                rgb_matrix_driver
 .rodata.str1.1
                0x000000000000dd3c       0x52 .build/obj_massdrop_ctrl_default/protocol/arm_atsam/md_rgb_matrix.o
 .rodata.str1.1
                0x000000000000dd8e        0xc .build/obj_massdrop_ctrl_default/protocol/arm_atsam/usb/udc.o
 .rodata        0x000000000000dd9a       0x12 .build/obj_massdrop_ctrl_default/protocol/arm_atsam/usb/usb.o
 .rodata.str1.1
                0x000000000000ddac       0x69 .build/obj_massdrop_ctrl_default/protocol/arm_atsam/usb/usb_hub.o
 .rodata        0x000000000000de15        0xc .build/obj_massdrop_ctrl_default/drivers/usb2422.o
 .rodata.str1.1
                0x000000000000de21       0x1b .build/obj_massdrop_ctrl_default/drivers/usb2422.o
 .rodata._global_impure_ptr
                0x000000000000de3c        0x4 /opt/homebrew/Cellar/arm-gcc-bin@8/8-2019-q3-update_1/bin/../lib/gcc/arm-none-eabi/8.3.1/../../../../arm-none-eabi/lib/thumb/v7e-m+fp/hard/libg.a(lib_a-impure.o)
                0x000000000000de3c                _global_impure_ptr
 *(.ARM.extab* .gnu.linkonce.armextab.*)
                0x000000000000de40                . = ALIGN (0x4)
 *(.init)
 .init          0x000000000000de40        0x4 /opt/homebrew/Cellar/arm-gcc-bin@8/8-2019-q3-update_1/bin/../lib/gcc/arm-none-eabi/8.3.1/thumb/v7e-m+fp/hard/crti.o
                0x000000000000de40                _init
 .init          0x000000000000de44        0x8 /opt/homebrew/Cellar/arm-gcc-bin@8/8-2019-q3-update_1/bin/../lib/gcc/arm-none-eabi/8.3.1/thumb/v7e-m+fp/hard/crtn.o
                0x000000000000de4c                . = ALIGN (0x4)
                0x000000000000de4c                __preinit_array_start = .
 *(.preinit_array)
                0x000000000000de4c                __preinit_array_end = .
                0x000000000000de4c                . = ALIGN (0x4)
                0x000000000000de4c                __init_array_start = .
 *(SORT_BY_NAME(.init_array.*))
 .init_array.00000
                0x000000000000de4c        0x4 /opt/homebrew/Cellar/arm-gcc-bin@8/8-2019-q3-update_1/bin/../lib/gcc/arm-none-eabi/8.3.1/../../../../arm-none-eabi/lib/thumb/v7e-m+fp/hard/libg.a(lib_a-__call_atexit.o)
 *(.init_array)
 .init_array    0x000000000000de50        0x4 /opt/homebrew/Cellar/arm-gcc-bin@8/8-2019-q3-update_1/bin/../lib/gcc/arm-none-eabi/8.3.1/thumb/v7e-m+fp/hard/crtbegin.o
                0x000000000000de54                __init_array_end = .
                0x000000000000de54                . = ALIGN (0x4)
 *crtbegin.o(.ctors)
 *(EXCLUDE_FILE(*crtend.o) .ctors)
 *(SORT_BY_NAME(.ctors.*))
 *crtend.o(.ctors)
                0x000000000000de54                . = ALIGN (0x4)
 *(.fini)
 .fini          0x000000000000de54        0x4 /opt/homebrew/Cellar/arm-gcc-bin@8/8-2019-q3-update_1/bin/../lib/gcc/arm-none-eabi/8.3.1/thumb/v7e-m+fp/hard/crti.o
                0x000000000000de54                _fini
 .fini          0x000000000000de58        0x8 /opt/homebrew/Cellar/arm-gcc-bin@8/8-2019-q3-update_1/bin/../lib/gcc/arm-none-eabi/8.3.1/thumb/v7e-m+fp/hard/crtn.o
                0x000000000000de60                . = ALIGN (0x4)
                0x000000000000de60                __fini_array_start = .
 *(.fini_array)
 .fini_array    0x000000000000de60        0x4 /opt/homebrew/Cellar/arm-gcc-bin@8/8-2019-q3-update_1/bin/../lib/gcc/arm-none-eabi/8.3.1/thumb/v7e-m+fp/hard/crtbegin.o
 *(SORT_BY_NAME(.fini_array.*))
                0x000000000000de64                __fini_array_end = .
 *crtbegin.o(.dtors)
 *(EXCLUDE_FILE(*crtend.o) .dtors)
 *(SORT_BY_NAME(.dtors.*))
 *crtend.o(.dtors)
                0x000000000000de64                . = ALIGN (0x4)
                0x000000000000de64                _efixed = .
                [!provide]                        PROVIDE (__exidx_start = .)

.vfp11_veneer   0x000000000000de64        0x0
 .vfp11_veneer  0x000000000000de64        0x0 linker stubs

.v4_bx          0x000000000000de64        0x0
 .v4_bx         0x000000000000de64        0x0 linker stubs

.iplt           0x000000000000de64        0x0
 .iplt          0x000000000000de64        0x0 /opt/homebrew/Cellar/arm-gcc-bin@8/8-2019-q3-update_1/bin/../lib/gcc/arm-none-eabi/8.3.1/thumb/v7e-m+fp/hard/crtbegin.o

.igot.plt       0x000000000000de64        0x0
 .igot.plt      0x000000000000de64        0x0 /opt/homebrew/Cellar/arm-gcc-bin@8/8-2019-q3-update_1/bin/../lib/gcc/arm-none-eabi/8.3.1/thumb/v7e-m+fp/hard/crtbegin.o

.ARM.exidx      0x000000000000de64        0x8
 *(.ARM.exidx* .gnu.linkonce.armexidx.*)
 .ARM.exidx     0x000000000000de64        0x8 /opt/homebrew/Cellar/arm-gcc-bin@8/8-2019-q3-update_1/bin/../lib/gcc/arm-none-eabi/8.3.1/thumb/v7e-m+fp/hard/libgcc.a(_udivmoddi4.o)
                [!provide]                        PROVIDE (__exidx_end = .)

.eh_frame       0x000000000000de6c        0x0
 .eh_frame      0x000000000000de6c        0x0 /opt/homebrew/Cellar/arm-gcc-bin@8/8-2019-q3-update_1/bin/../lib/gcc/arm-none-eabi/8.3.1/thumb/v7e-m+fp/hard/crtbegin.o

.rel.dyn        0x000000000000de6c        0x0
 .rel.iplt      0x000000000000de6c        0x0 /opt/homebrew/Cellar/arm-gcc-bin@8/8-2019-q3-update_1/bin/../lib/gcc/arm-none-eabi/8.3.1/thumb/v7e-m+fp/hard/crtbegin.o
                0x000000000000de6c                . = ALIGN (0x4)
                0x000000000000de6c                _etext = .

.relocate       0x0000000020000000     0x1c5c load address 0x000000000000de6c
                0x0000000020000000                . = ALIGN (0x4)
                0x0000000020000000                _srelocate = .
 *(.ramfunc .ramfunc.*)
 *(.data .data.*)
 .data          0x0000000020000000      0x1bd .build/obj_massdrop_ctrl_default/config_led.o
                0x0000000020000000                g_led_config
 *fill*         0x00000000200001bd        0x1 
 .data          0x00000000200001be        0x2 .build/obj_massdrop_ctrl_default/quantum/action_tapping.o
                0x00000000200001be                g_tapping_term
 .data          0x00000000200001c0        0x4 .build/obj_massdrop_ctrl_default/quantum/action_util.o
                0x00000000200001c0                keyboard_report
 .data          0x00000000200001c4        0x4 .build/obj_massdrop_ctrl_default/quantum/logging/print.o
 .data          0x00000000200001c8        0x8 .build/obj_massdrop_ctrl_default/platforms/arm_atsam/eeprom.o
                0x00000000200001cc                SmartEEPROM8
 .data          0x00000000200001d0        0x6 .build/obj_massdrop_ctrl_default/quantum/rgb_matrix/rgb_matrix.o
 .data          0x00000000200001d6        0x2 .build/obj_massdrop_ctrl_default/lib/lib8tion/lib8tion.o
                0x00000000200001d6                rand16seed
 .data          0x00000000200001d8     0x1474 .build/obj_massdrop_ctrl_default/protocol/arm_atsam/md_rgb_matrix.o
                0x00000000200001d8                led_map
 .data          0x000000002000164c       0x1c .build/obj_massdrop_ctrl_default/protocol/arm_atsam/main_arm_atsam.o
                0x000000002000164c                g_usb_state
                0x0000000020001650                arm_atsam_driver
 .data          0x0000000020001668        0x1 .build/obj_massdrop_ctrl_default/protocol/arm_atsam/spi_master.o
 .data          0x0000000020001669        0x1 .build/obj_massdrop_ctrl_default/protocol/arm_atsam/usb/main_usb.o
                0x0000000020001669                keyboard_protocol
 *fill*         0x000000002000166a        0x2 
 .data          0x000000002000166c       0x4a .build/obj_massdrop_ctrl_default/protocol/arm_atsam/usb/udc.o
 *fill*         0x00000000200016b6        0x2 
 .data          0x00000000200016b8       0xe8 .build/obj_massdrop_ctrl_default/protocol/arm_atsam/usb/udi_hid_kbd.o
                0x00000000200016b8                udi_hid_kbd_report_desc
                0x00000000200016f4                udi_hid_nkro_report_desc
                0x0000000020001730                udi_hid_exk_report_desc
                0x0000000020001764                udi_api_hid_exk
                0x0000000020001778                udi_api_hid_nkro
                0x000000002000178c                udi_api_hid_kbd
 .data          0x00000000200017a0       0x86 .build/obj_massdrop_ctrl_default/protocol/arm_atsam/usb/udi_hid_kbd_desc.o
                0x00000000200017a0                udc_config
                0x00000000200017ac                udc_config_fshs
                0x00000000200017b4                udi_apis
                0x00000000200017c0                udc_desc
                0x0000000020001814                udc_device_desc
 *fill*         0x0000000020001826        0x2 
 .data._impure_ptr
                0x0000000020001828        0x4 /opt/homebrew/Cellar/arm-gcc-bin@8/8-2019-q3-update_1/bin/../lib/gcc/arm-none-eabi/8.3.1/../../../../arm-none-eabi/lib/thumb/v7e-m+fp/hard/libg.a(lib_a-impure.o)
                0x0000000020001828                _impure_ptr
 *fill*         0x000000002000182c        0x4 
 .data.impure_data
                0x0000000020001830      0x428 /opt/homebrew/Cellar/arm-gcc-bin@8/8-2019-q3-update_1/bin/../lib/gcc/arm-none-eabi/8.3.1/../../../../arm-none-eabi/lib/thumb/v7e-m+fp/hard/libg.a(lib_a-impure.o)
 .data.__atexit_recursive_mutex
                0x0000000020001c58        0x4 /opt/homebrew/Cellar/arm-gcc-bin@8/8-2019-q3-update_1/bin/../lib/gcc/arm-none-eabi/8.3.1/../../../../arm-none-eabi/lib/thumb/v7e-m+fp/hard/libg.a(lib_a-__call_atexit.o)
                0x0000000020001c58                __atexit_recursive_mutex
                0x0000000020001c5c                . = ALIGN (0x4)
                0x0000000020001c5c                _erelocate = .

.bkupram        0x0000000047000000        0x0
                0x0000000047000000                . = ALIGN (0x8)
                0x0000000047000000                _sbkupram = .
 *(.bkupram .bkupram.*)
                0x0000000047000000                . = ALIGN (0x8)
                0x0000000047000000                _ebkupram = .

.qspi           0x0000000004000000        0x0
                0x0000000004000000                . = ALIGN (0x8)
                0x0000000004000000                _sqspi = .
 *(.qspi .qspi.*)
                0x0000000004000000                . = ALIGN (0x8)
                0x0000000004000000                _eqspi = .

.bss            0x0000000020001c60     0x12fc load address 0x000000000000fad0
                0x0000000020001c60                . = ALIGN (0x4)
                0x0000000020001c60                _sbss = .
                0x0000000020001c60                _szero = .
 *(.bss .bss.*)
 .bss           0x0000000020001c60       0x1c /opt/homebrew/Cellar/arm-gcc-bin@8/8-2019-q3-update_1/bin/../lib/gcc/arm-none-eabi/8.3.1/thumb/v7e-m+fp/hard/crtbegin.o
 .bss           0x0000000020001c7c        0x4 .build/obj_massdrop_ctrl_default/keyboards/massdrop/ctrl/keymaps/default/keymap.o
 .bss           0x0000000020001c80        0x1 .build/obj_massdrop_ctrl_default/quantum/action.o
                0x0000000020001c80                disable_action_cache
 *fill*         0x0000000020001c81        0x3 
 .bss           0x0000000020001c84       0x3f .build/obj_massdrop_ctrl_default/quantum/action_layer.o
                0x0000000020001c84                default_layer_state
                0x0000000020001c88                layer_state
                0x0000000020001c8c                source_layers_cache
 *fill*         0x0000000020001cc3        0x1 
 .bss           0x0000000020001cc4       0x4c .build/obj_massdrop_ctrl_default/quantum/action_tapping.o
 .bss           0x0000000020001d10       0x26 .build/obj_massdrop_ctrl_default/quantum/action_util.o
 *fill*         0x0000000020001d36        0x2 
 .bss           0x0000000020001d38       0x18 .build/obj_massdrop_ctrl_default/quantum/keyboard.o
 .bss           0x0000000020001d50        0x1 .build/obj_massdrop_ctrl_default/quantum/logging/debug.o
                0x0000000020001d50                debug_config
 *fill*         0x0000000020001d51        0x3 
 .bss           0x0000000020001d54        0x8 .build/obj_massdrop_ctrl_default/quantum/debounce/sym_defer_g.o
 .bss           0x0000000020001d5c      0x400 .build/obj_massdrop_ctrl_default/platforms/arm_atsam/eeprom.o
 .bss           0x000000002000215c       0x90 .build/obj_massdrop_ctrl_default/quantum/rgb_matrix/rgb_matrix.o
 .bss           0x00000000200021ec        0x1 .build/obj_massdrop_ctrl_default/quantum/process_keycode/process_grave_esc.o
 *fill*         0x00000000200021ed        0x1 
 .bss           0x00000000200021ee        0x4 .build/obj_massdrop_ctrl_default/quantum/process_keycode/process_space_cadet.o
 *fill*         0x00000000200021f2        0x2 
 .bss           0x00000000200021f4        0xc .build/obj_massdrop_ctrl_default/protocol/host.o
 .bss           0x0000000020002200        0x4 .build/obj_massdrop_ctrl_default/protocol/arm_atsam/d51_util.o
 .bss           0x0000000020002204      0x167 .build/obj_massdrop_ctrl_default/protocol/arm_atsam/i2c_master.o
 .bss           0x000000002000236b        0x2 .build/obj_massdrop_ctrl_default/protocol/arm_atsam/md_rgb_matrix.o
 *fill*         0x000000002000236d        0x3 
 .bss           0x0000000020002370       0x18 .build/obj_massdrop_ctrl_default/protocol/arm_atsam/main_arm_atsam.o
 .bss           0x0000000020002388        0x1 .build/obj_massdrop_ctrl_default/protocol/arm_atsam/spi_master.o
 .bss           0x0000000020002389        0x3 .build/obj_massdrop_ctrl_default/protocol/arm_atsam/usb/main_usb.o
                0x0000000020002389                main_b_kbd_enable
                0x000000002000238a                main_b_nkro_enable
                0x000000002000238b                main_b_exk_enable
 .bss           0x000000002000238c       0x28 .build/obj_massdrop_ctrl_default/protocol/arm_atsam/usb/udc.o
                0x000000002000239a                bootloader_serial_number
                0x00000000200023af                usb_device_serial_name_size
 .bss           0x00000000200023b4       0x43 .build/obj_massdrop_ctrl_default/protocol/arm_atsam/usb/udi_hid_kbd.o
 *fill*         0x00000000200023f7        0x1 
 .bss           0x00000000200023f8       0x10 .build/obj_massdrop_ctrl_default/protocol/arm_atsam/usb/usb.o
 .bss           0x0000000020002408       0xa7 .build/obj_massdrop_ctrl_default/protocol/arm_atsam/usb/usb_device_udd.o
 *fill*         0x00000000200024af        0x1 
 .bss           0x00000000200024b0      0x122 .build/obj_massdrop_ctrl_default/drivers/usb2422.o
 *(COMMON)
 COMMON         0x00000000200025d2        0x2 .build/obj_massdrop_ctrl_default/quantum/bootmagic/magic.o
                0x00000000200025d2                keymap_config
 COMMON         0x00000000200025d4       0x16 .build/obj_massdrop_ctrl_default/quantum/matrix_common.o
                0x00000000200025d4                raw_matrix
                0x00000000200025df                matrix
 *fill*         0x00000000200025ea        0x2 
 COMMON         0x00000000200025ec       0x35 .build/obj_massdrop_ctrl_default/quantum/rgb_matrix/rgb_matrix.o
                0x00000000200025ec                rgb_matrix_config
                0x00000000200025f4                g_rgb_timer
                0x00000000200025f8                g_last_hit_tracker
 *fill*         0x0000000020002621        0x1 
 COMMON         0x0000000020002622        0xc .build/obj_massdrop_ctrl_default/protocol/arm_atsam/adc.o
                0x0000000020002622                v_con_1_boot
                0x0000000020002624                v_con_1
                0x0000000020002626                v_con_2
                0x0000000020002628                v_con_2_boot
                0x000000002000262a                v_5v
                0x000000002000262c                v_5v_avg
 *fill*         0x000000002000262e        0x2 
 COMMON         0x0000000020002630       0x78 .build/obj_massdrop_ctrl_default/protocol/arm_atsam/clks.o
                0x0000000020002630                usec_delay_mult
                0x0000000020002634                system_clks
                0x00000000200026a0                ms_clk
 COMMON         0x00000000200026a8        0x4 .build/obj_massdrop_ctrl_default/protocol/arm_atsam/d51_util.o
                0x00000000200026a8                debug_code
 *fill*         0x00000000200026ac        0x4 
 COMMON         0x00000000200026b0       0x30 .build/obj_massdrop_ctrl_default/protocol/arm_atsam/i2c_master.o
                0x00000000200026b0                dmac_desc_wb
                0x00000000200026c0                i2c_led_q_running
                0x00000000200026d0                dmac_desc
 COMMON         0x00000000200026e0      0x52a .build/obj_massdrop_ctrl_default/protocol/arm_atsam/md_rgb_matrix.o
                0x00000000200026e0                issidrv
                0x0000000020002aa2                led_buffer
                0x0000000020002c07                gcr_desired
                0x0000000020002c08                gcr_actual
                0x0000000020002c09                gcr_actual_last
 COMMON         0x0000000020002c0a        0x2 .build/obj_massdrop_ctrl_default/protocol/arm_atsam/shift_register.o
                0x0000000020002c0a                sr_exp_data
 COMMON         0x0000000020002c0c        0xd .build/obj_massdrop_ctrl_default/protocol/arm_atsam/usb/udi_cdc.o
                0x0000000020002c0c                inbuf
                0x0000000020002c18                printbuf
 *fill*         0x0000000020002c19        0x3 
 COMMON         0x0000000020002c1c       0x3d .build/obj_massdrop_ctrl_default/protocol/arm_atsam/usb/udi_hid_kbd.o
                0x0000000020002c1c                udi_hid_nkro_b_report_valid
                0x0000000020002c20                udi_hid_kbd_report
                0x0000000020002c28                udi_hid_kbd_b_report_valid
                0x0000000020002c29                udi_hid_kbd_b_report_trans_ongoing
                0x0000000020002c2a                udi_hid_exk_b_report_valid
                0x0000000020002c2b                udi_hid_nkro_b_report_trans_ongoing
                0x0000000020002c2c                udi_hid_exk_report_set
                0x0000000020002c30                udi_hid_nkro_report
                0x0000000020002c50                udi_hid_exk_report
                0x0000000020002c54                udi_hid_nkro_report_set
                0x0000000020002c58                udi_hid_kbd_report_set
 *fill*         0x0000000020002c59        0x3 
 COMMON         0x0000000020002c5c      0x100 .build/obj_massdrop_ctrl_default/protocol/arm_atsam/usb/usb.o
                0x0000000020002c5c                usb_descriptor_table
 COMMON         0x0000000020002d5c      0x1d4 .build/obj_massdrop_ctrl_default/protocol/arm_atsam/usb/usb_device_udd.o
                0x0000000020002d5c                udd_ep_out_cache_buffer
                0x0000000020002e5c                usb_device
                0x0000000020002f10                udd_g_ctrlreq
                0x0000000020002f28                udd_ctrl_buffer
 COMMON         0x0000000020002f30        0x7 .build/obj_massdrop_ctrl_default/protocol/arm_atsam/usb/usb_hub.o
                0x0000000020002f30                usb_gcr_auto
                0x0000000020002f31                usb_extra_state
                0x0000000020002f32                usb_extra_manual
                0x0000000020002f34                adc_extra
                0x0000000020002f36                usb_host_port
 *fill*         0x0000000020002f37        0x1 
 COMMON         0x0000000020002f38       0x21 /opt/homebrew/Cellar/arm-gcc-bin@8/8-2019-q3-update_1/bin/../lib/gcc/arm-none-eabi/8.3.1/../../../../arm-none-eabi/lib/thumb/v7e-m+fp/hard/libg.a(lib_a-lock.o)
                0x0000000020002f38                __lock___atexit_recursive_mutex
                0x0000000020002f3c                __lock___arc4random_mutex
                0x0000000020002f40                __lock___env_recursive_mutex
                0x0000000020002f44                __lock___sinit_recursive_mutex
                0x0000000020002f48                __lock___malloc_recursive_mutex
                0x0000000020002f4c                __lock___at_quick_exit_mutex
                0x0000000020002f50                __lock___dd_hash_mutex
                0x0000000020002f54                __lock___tz_mutex
                0x0000000020002f58                __lock___sfp_recursive_mutex
                0x0000000020002f5c                . = ALIGN (0x4)
 *fill*         0x0000000020002f59        0x3 
                0x0000000020002f5c                _ebss = .
                0x0000000020002f5c                _ezero = .

.heap           0x0000000020002f5c      0x800 load address 0x0000000000010dcc
                0x0000000020002f5c                . = ALIGN (0x4)
                0x000000002000b760                _end = .
                0x0000000020002f5c                end = .
                0x0000000020002f5c                _heap_start = .
                0x000000002000375c                . = (. + HEAP_SIZE)
 *fill*         0x0000000020002f5c      0x800 
                0x000000002000375c                _heap_end = .

.stack          0x000000002000375c     0x8004 load address 0x00000000000115cc
                0x0000000020003760                . = ALIGN (0x8)
 *fill*         0x000000002000375c        0x4 
                0x0000000020003760                _sstack = .
                0x000000002000b760                . = (. + STACK_SIZE)
 *fill*         0x0000000020003760     0x8000 
                0x000000002000b760                . = ALIGN (0x8)
                0x000000002000b760                _estack = .
                0x000000002000b760                . = ALIGN (0x4)
                0x000000002000b760                _end = .
OUTPUT(.build/massdrop_ctrl_default.elf elf32-littlearm)

.ARM.attributes
                0x0000000000000000       0x30
 .ARM.attributes
                0x0000000000000000       0x1e /opt/homebrew/Cellar/arm-gcc-bin@8/8-2019-q3-update_1/bin/../lib/gcc/arm-none-eabi/8.3.1/thumb/v7e-m+fp/hard/crti.o
 .ARM.attributes
                0x000000000000001e       0x34 /opt/homebrew/Cellar/arm-gcc-bin@8/8-2019-q3-update_1/bin/../lib/gcc/arm-none-eabi/8.3.1/thumb/v7e-m+fp/hard/crtbegin.o
 .ARM.attributes
                0x0000000000000052       0x34 .build/obj_massdrop_ctrl_default/config_led.o
 .ARM.attributes
                0x0000000000000086       0x34 .build/obj_massdrop_ctrl_default/keyboards/massdrop/ctrl/ctrl.o
 .ARM.attributes
                0x00000000000000ba       0x34 .build/obj_massdrop_ctrl_default/keyboards/massdrop/ctrl/keymaps/default/keymap.o
 .ARM.attributes
                0x00000000000000ee       0x34 .build/obj_massdrop_ctrl_default/quantum/quantum.o
 .ARM.attributes
                0x0000000000000122       0x34 .build/obj_massdrop_ctrl_default/quantum/led.o
 .ARM.attributes
                0x0000000000000156       0x34 .build/obj_massdrop_ctrl_default/quantum/action.o
 .ARM.attributes
                0x000000000000018a       0x34 .build/obj_massdrop_ctrl_default/quantum/action_layer.o
 .ARM.attributes
                0x00000000000001be       0x34 .build/obj_massdrop_ctrl_default/quantum/action_macro.o
 .ARM.attributes
                0x00000000000001f2       0x34 .build/obj_massdrop_ctrl_default/quantum/action_tapping.o
 .ARM.attributes
                0x0000000000000226       0x34 .build/obj_massdrop_ctrl_default/quantum/action_util.o
 .ARM.attributes
                0x000000000000025a       0x34 .build/obj_massdrop_ctrl_default/quantum/eeconfig.o
 .ARM.attributes
                0x000000000000028e       0x34 .build/obj_massdrop_ctrl_default/quantum/keyboard.o
 .ARM.attributes
                0x00000000000002c2       0x34 .build/obj_massdrop_ctrl_default/quantum/keymap_common.o
 .ARM.attributes
                0x00000000000002f6       0x34 .build/obj_massdrop_ctrl_default/quantum/keycode_config.o
 .ARM.attributes
                0x000000000000032a       0x39 .build/obj_massdrop_ctrl_default/quantum/logging/debug.o
 .ARM.attributes
                0x0000000000000363       0x34 .build/obj_massdrop_ctrl_default/quantum/logging/sendchar.o
 .ARM.attributes
                0x0000000000000397       0x34 .build/obj_massdrop_ctrl_default/quantum/logging/print.o
 .ARM.attributes
                0x00000000000003cb       0x34 .build/obj_massdrop_ctrl_default/quantum/bootmagic/magic.o
 .ARM.attributes
                0x00000000000003ff       0x34 .build/obj_massdrop_ctrl_default/quantum/matrix_common.o
 .ARM.attributes
                0x0000000000000433       0x34 .build/obj_massdrop_ctrl_default/quantum/matrix.o
 .ARM.attributes
                0x0000000000000467       0x34 .build/obj_massdrop_ctrl_default/quantum/debounce/sym_defer_g.o
 .ARM.attributes
                0x000000000000049b       0x34 .build/obj_massdrop_ctrl_default/platforms/arm_atsam/eeprom.o
 .ARM.attributes
                0x00000000000004cf       0x34 .build/obj_massdrop_ctrl_default/quantum/color.o
 .ARM.attributes
                0x0000000000000503       0x34 .build/obj_massdrop_ctrl_default/quantum/rgb_matrix/rgb_matrix.o
 .ARM.attributes
                0x0000000000000537       0x39 .build/obj_massdrop_ctrl_default/lib/lib8tion/lib8tion.o
 .ARM.attributes
                0x0000000000000570       0x34 .build/obj_massdrop_ctrl_default/quantum/process_keycode/process_rgb.o
 .ARM.attributes
                0x00000000000005a4       0x39 .build/obj_massdrop_ctrl_default/quantum/led_tables.o
 .ARM.attributes
                0x00000000000005dd       0x34 .build/obj_massdrop_ctrl_default/quantum/process_keycode/process_magic.o
 .ARM.attributes
                0x0000000000000611       0x34 .build/obj_massdrop_ctrl_default/quantum/process_keycode/process_grave_esc.o
 .ARM.attributes
                0x0000000000000645       0x34 .build/obj_massdrop_ctrl_default/quantum/process_keycode/process_space_cadet.o
 .ARM.attributes
                0x0000000000000679       0x34 .build/obj_massdrop_ctrl_default/protocol/host.o
 .ARM.attributes
                0x00000000000006ad       0x34 .build/obj_massdrop_ctrl_default/protocol/report.o
 .ARM.attributes
                0x00000000000006e1       0x34 .build/obj_massdrop_ctrl_default/platforms/arm_atsam/suspend.o
 .ARM.attributes
                0x0000000000000715       0x34 .build/obj_massdrop_ctrl_default/platforms/arm_atsam/timer.o
 .ARM.attributes
                0x0000000000000749       0x34 .build/obj_massdrop_ctrl_default/platforms/arm_atsam/bootloader.o
 .ARM.attributes
                0x000000000000077d       0x34 .build/obj_massdrop_ctrl_default/protocol/arm_atsam/adc.o
 .ARM.attributes
                0x00000000000007b1       0x34 .build/obj_massdrop_ctrl_default/protocol/arm_atsam/clks.o
 .ARM.attributes
                0x00000000000007e5       0x34 .build/obj_massdrop_ctrl_default/protocol/arm_atsam/d51_util.o
 .ARM.attributes
                0x0000000000000819       0x34 .build/obj_massdrop_ctrl_default/protocol/arm_atsam/i2c_master.o
 .ARM.attributes
                0x000000000000084d       0x34 .build/obj_massdrop_ctrl_default/protocol/arm_atsam/md_rgb_matrix.o
 .ARM.attributes
                0x0000000000000881       0x34 .build/obj_massdrop_ctrl_default/protocol/arm_atsam/main_arm_atsam.o
 .ARM.attributes
                0x00000000000008b5       0x34 .build/obj_massdrop_ctrl_default/protocol/arm_atsam/shift_register.o
 .ARM.attributes
                0x00000000000008e9       0x34 .build/obj_massdrop_ctrl_default/protocol/arm_atsam/spi_master.o
 .ARM.attributes
                0x000000000000091d       0x34 .build/obj_massdrop_ctrl_default/protocol/arm_atsam/startup.o
 .ARM.attributes
                0x0000000000000951       0x34 .build/obj_massdrop_ctrl_default/protocol/arm_atsam/usb/main_usb.o
 .ARM.attributes
                0x0000000000000985       0x34 .build/obj_massdrop_ctrl_default/protocol/arm_atsam/usb/udc.o
 .ARM.attributes
                0x00000000000009b9       0x34 .build/obj_massdrop_ctrl_default/protocol/arm_atsam/usb/udi_cdc.o
 .ARM.attributes
                0x00000000000009ed       0x34 .build/obj_massdrop_ctrl_default/protocol/arm_atsam/usb/udi_hid.o
 .ARM.attributes
                0x0000000000000a21       0x34 .build/obj_massdrop_ctrl_default/protocol/arm_atsam/usb/udi_hid_kbd.o
 .ARM.attributes
                0x0000000000000a55       0x39 .build/obj_massdrop_ctrl_default/protocol/arm_atsam/usb/udi_hid_kbd_desc.o
 .ARM.attributes
                0x0000000000000a8e       0x34 .build/obj_massdrop_ctrl_default/protocol/arm_atsam/usb/ui.o
 .ARM.attributes
                0x0000000000000ac2       0x34 .build/obj_massdrop_ctrl_default/protocol/arm_atsam/usb/usb.o
 .ARM.attributes
                0x0000000000000af6       0x34 .build/obj_massdrop_ctrl_default/protocol/arm_atsam/usb/usb_device_udd.o
 .ARM.attributes
                0x0000000000000b2a       0x34 .build/obj_massdrop_ctrl_default/protocol/arm_atsam/usb/usb_hub.o
 .ARM.attributes
                0x0000000000000b5e       0x34 .build/obj_massdrop_ctrl_default/drivers/usb2422.o
 .ARM.attributes
                0x0000000000000b92       0x1e /opt/homebrew/Cellar/arm-gcc-bin@8/8-2019-q3-update_1/bin/../lib/gcc/arm-none-eabi/8.3.1/thumb/v7e-m+fp/hard/libgcc.a(_arm_addsubdf3.o)
 .ARM.attributes
                0x0000000000000bb0       0x1e /opt/homebrew/Cellar/arm-gcc-bin@8/8-2019-q3-update_1/bin/../lib/gcc/arm-none-eabi/8.3.1/thumb/v7e-m+fp/hard/libgcc.a(_arm_muldivdf3.o)
 .ARM.attributes
                0x0000000000000bce       0x1e /opt/homebrew/Cellar/arm-gcc-bin@8/8-2019-q3-update_1/bin/../lib/gcc/arm-none-eabi/8.3.1/thumb/v7e-m+fp/hard/libgcc.a(_arm_fixunsdfsi.o)
 .ARM.attributes
                0x0000000000000bec       0x1e /opt/homebrew/Cellar/arm-gcc-bin@8/8-2019-q3-update_1/bin/../lib/gcc/arm-none-eabi/8.3.1/thumb/v7e-m+fp/hard/libgcc.a(_aeabi_uldivmod.o)
 .ARM.attributes
                0x0000000000000c0a       0x34 /opt/homebrew/Cellar/arm-gcc-bin@8/8-2019-q3-update_1/bin/../lib/gcc/arm-none-eabi/8.3.1/thumb/v7e-m+fp/hard/libgcc.a(_udivmoddi4.o)
 .ARM.attributes
                0x0000000000000c3e       0x1e /opt/homebrew/Cellar/arm-gcc-bin@8/8-2019-q3-update_1/bin/../lib/gcc/arm-none-eabi/8.3.1/thumb/v7e-m+fp/hard/libgcc.a(_dvmd_tls.o)
 .ARM.attributes
                0x0000000000000c5c       0x32 /opt/homebrew/Cellar/arm-gcc-bin@8/8-2019-q3-update_1/bin/../lib/gcc/arm-none-eabi/8.3.1/../../../../arm-none-eabi/lib/thumb/v7e-m+fp/hard/libg.a(lib_a-impure.o)
 .ARM.attributes
                0x0000000000000c8e       0x34 /opt/homebrew/Cellar/arm-gcc-bin@8/8-2019-q3-update_1/bin/../lib/gcc/arm-none-eabi/8.3.1/../../../../arm-none-eabi/lib/thumb/v7e-m+fp/hard/libg.a(lib_a-init.o)
 .ARM.attributes
                0x0000000000000cc2       0x34 /opt/homebrew/Cellar/arm-gcc-bin@8/8-2019-q3-update_1/bin/../lib/gcc/arm-none-eabi/8.3.1/../../../../arm-none-eabi/lib/thumb/v7e-m+fp/hard/libg.a(lib_a-memcmp.o)
 .ARM.attributes
                0x0000000000000cf6       0x1c /opt/homebrew/Cellar/arm-gcc-bin@8/8-2019-q3-update_1/bin/../lib/gcc/arm-none-eabi/8.3.1/../../../../arm-none-eabi/lib/thumb/v7e-m+fp/hard/libg.a(lib_a-memcpy.o)
 .ARM.attributes
                0x0000000000000d12       0x34 /opt/homebrew/Cellar/arm-gcc-bin@8/8-2019-q3-update_1/bin/../lib/gcc/arm-none-eabi/8.3.1/../../../../arm-none-eabi/lib/thumb/v7e-m+fp/hard/libg.a(lib_a-memset.o)
 .ARM.attributes
                0x0000000000000d46       0x34 /opt/homebrew/Cellar/arm-gcc-bin@8/8-2019-q3-update_1/bin/../lib/gcc/arm-none-eabi/8.3.1/../../../../arm-none-eabi/lib/thumb/v7e-m+fp/hard/libg.a(lib_a-rand.o)
 .ARM.attributes
                0x0000000000000d7a       0x34 /opt/homebrew/Cellar/arm-gcc-bin@8/8-2019-q3-update_1/bin/../lib/gcc/arm-none-eabi/8.3.1/../../../../arm-none-eabi/lib/thumb/v7e-m+fp/hard/libg.a(lib_a-__call_atexit.o)
 .ARM.attributes
                0x0000000000000dae       0x34 /opt/homebrew/Cellar/arm-gcc-bin@8/8-2019-q3-update_1/bin/../lib/gcc/arm-none-eabi/8.3.1/../../../../arm-none-eabi/lib/thumb/v7e-m+fp/hard/libg.a(lib_a-atexit.o)
 .ARM.attributes
                0x0000000000000de2       0x34 /opt/homebrew/Cellar/arm-gcc-bin@8/8-2019-q3-update_1/bin/../lib/gcc/arm-none-eabi/8.3.1/../../../../arm-none-eabi/lib/thumb/v7e-m+fp/hard/libg.a(lib_a-fini.o)
 .ARM.attributes
                0x0000000000000e16       0x34 /opt/homebrew/Cellar/arm-gcc-bin@8/8-2019-q3-update_1/bin/../lib/gcc/arm-none-eabi/8.3.1/../../../../arm-none-eabi/lib/thumb/v7e-m+fp/hard/libg.a(lib_a-lock.o)
 .ARM.attributes
                0x0000000000000e4a       0x34 /opt/homebrew/Cellar/arm-gcc-bin@8/8-2019-q3-update_1/bin/../lib/gcc/arm-none-eabi/8.3.1/../../../../arm-none-eabi/lib/thumb/v7e-m+fp/hard/libg.a(lib_a-__atexit.o)
 .ARM.attributes
                0x0000000000000e7e       0x1e /opt/homebrew/Cellar/arm-gcc-bin@8/8-2019-q3-update_1/bin/../lib/gcc/arm-none-eabi/8.3.1/thumb/v7e-m+fp/hard/crtn.o

.comment        0x0000000000000000       0x76
 .comment       0x0000000000000000       0x76 .build/obj_massdrop_ctrl_default/config_led.o
                                         0x77 (size before relaxing)
 .comment       0x0000000000000076       0x77 .build/obj_massdrop_ctrl_default/keyboards/massdrop/ctrl/ctrl.o
 .comment       0x0000000000000076       0x77 .build/obj_massdrop_ctrl_default/keyboards/massdrop/ctrl/keymaps/default/keymap.o
 .comment       0x0000000000000076       0x77 .build/obj_massdrop_ctrl_default/quantum/quantum.o
 .comment       0x0000000000000076       0x77 .build/obj_massdrop_ctrl_default/quantum/led.o
 .comment       0x0000000000000076       0x77 .build/obj_massdrop_ctrl_default/quantum/action.o
 .comment       0x0000000000000076       0x77 .build/obj_massdrop_ctrl_default/quantum/action_layer.o
 .comment       0x0000000000000076       0x77 .build/obj_massdrop_ctrl_default/quantum/action_macro.o
 .comment       0x0000000000000076       0x77 .build/obj_massdrop_ctrl_default/quantum/action_tapping.o
 .comment       0x0000000000000076       0x77 .build/obj_massdrop_ctrl_default/quantum/action_util.o
 .comment       0x0000000000000076       0x77 .build/obj_massdrop_ctrl_default/quantum/eeconfig.o
 .comment       0x0000000000000076       0x77 .build/obj_massdrop_ctrl_default/quantum/keyboard.o
 .comment       0x0000000000000076       0x77 .build/obj_massdrop_ctrl_default/quantum/keymap_common.o
 .comment       0x0000000000000076       0x77 .build/obj_massdrop_ctrl_default/quantum/keycode_config.o
 .comment       0x0000000000000076       0x77 .build/obj_massdrop_ctrl_default/quantum/logging/debug.o
 .comment       0x0000000000000076       0x77 .build/obj_massdrop_ctrl_default/quantum/logging/sendchar.o
 .comment       0x0000000000000076       0x77 .build/obj_massdrop_ctrl_default/quantum/logging/print.o
 .comment       0x0000000000000076       0x77 .build/obj_massdrop_ctrl_default/quantum/bootmagic/magic.o
 .comment       0x0000000000000076       0x77 .build/obj_massdrop_ctrl_default/quantum/matrix_common.o
 .comment       0x0000000000000076       0x77 .build/obj_massdrop_ctrl_default/quantum/matrix.o
 .comment       0x0000000000000076       0x77 .build/obj_massdrop_ctrl_default/quantum/debounce/sym_defer_g.o
 .comment       0x0000000000000076       0x77 .build/obj_massdrop_ctrl_default/platforms/arm_atsam/eeprom.o
 .comment       0x0000000000000076       0x77 .build/obj_massdrop_ctrl_default/quantum/color.o
 .comment       0x0000000000000076       0x77 .build/obj_massdrop_ctrl_default/quantum/rgb_matrix/rgb_matrix.o
 .comment       0x0000000000000076       0x77 .build/obj_massdrop_ctrl_default/lib/lib8tion/lib8tion.o
 .comment       0x0000000000000076       0x77 .build/obj_massdrop_ctrl_default/quantum/process_keycode/process_rgb.o
 .comment       0x0000000000000076       0x77 .build/obj_massdrop_ctrl_default/quantum/led_tables.o
 .comment       0x0000000000000076       0x77 .build/obj_massdrop_ctrl_default/quantum/process_keycode/process_magic.o
 .comment       0x0000000000000076       0x77 .build/obj_massdrop_ctrl_default/quantum/process_keycode/process_grave_esc.o
 .comment       0x0000000000000076       0x77 .build/obj_massdrop_ctrl_default/quantum/process_keycode/process_space_cadet.o
 .comment       0x0000000000000076       0x77 .build/obj_massdrop_ctrl_default/protocol/host.o
 .comment       0x0000000000000076       0x77 .build/obj_massdrop_ctrl_default/protocol/report.o
 .comment       0x0000000000000076       0x77 .build/obj_massdrop_ctrl_default/platforms/arm_atsam/suspend.o
 .comment       0x0000000000000076       0x77 .build/obj_massdrop_ctrl_default/platforms/arm_atsam/timer.o
 .comment       0x0000000000000076       0x77 .build/obj_massdrop_ctrl_default/platforms/arm_atsam/bootloader.o
 .comment       0x0000000000000076       0x77 .build/obj_massdrop_ctrl_default/protocol/arm_atsam/adc.o
 .comment       0x0000000000000076       0x77 .build/obj_massdrop_ctrl_default/protocol/arm_atsam/clks.o
 .comment       0x0000000000000076       0x77 .build/obj_massdrop_ctrl_default/protocol/arm_atsam/d51_util.o
 .comment       0x0000000000000076       0x77 .build/obj_massdrop_ctrl_default/protocol/arm_atsam/i2c_master.o
 .comment       0x0000000000000076       0x77 .build/obj_massdrop_ctrl_default/protocol/arm_atsam/md_rgb_matrix.o
 .comment       0x0000000000000076       0x77 .build/obj_massdrop_ctrl_default/protocol/arm_atsam/main_arm_atsam.o
 .comment       0x0000000000000076       0x77 .build/obj_massdrop_ctrl_default/protocol/arm_atsam/shift_register.o
 .comment       0x0000000000000076       0x77 .build/obj_massdrop_ctrl_default/protocol/arm_atsam/spi_master.o
 .comment       0x0000000000000076       0x77 .build/obj_massdrop_ctrl_default/protocol/arm_atsam/startup.o
 .comment       0x0000000000000076       0x77 .build/obj_massdrop_ctrl_default/protocol/arm_atsam/usb/main_usb.o
 .comment       0x0000000000000076       0x77 .build/obj_massdrop_ctrl_default/protocol/arm_atsam/usb/udc.o
 .comment       0x0000000000000076       0x77 .build/obj_massdrop_ctrl_default/protocol/arm_atsam/usb/udi_cdc.o
 .comment       0x0000000000000076       0x77 .build/obj_massdrop_ctrl_default/protocol/arm_atsam/usb/udi_hid.o
 .comment       0x0000000000000076       0x77 .build/obj_massdrop_ctrl_default/protocol/arm_atsam/usb/udi_hid_kbd.o
 .comment       0x0000000000000076       0x77 .build/obj_massdrop_ctrl_default/protocol/arm_atsam/usb/udi_hid_kbd_desc.o
 .comment       0x0000000000000076       0x77 .build/obj_massdrop_ctrl_default/protocol/arm_atsam/usb/ui.o
 .comment       0x0000000000000076       0x77 .build/obj_massdrop_ctrl_default/protocol/arm_atsam/usb/usb.o
 .comment       0x0000000000000076       0x77 .build/obj_massdrop_ctrl_default/protocol/arm_atsam/usb/usb_device_udd.o
 .comment       0x0000000000000076       0x77 .build/obj_massdrop_ctrl_default/protocol/arm_atsam/usb/usb_hub.o
 .comment       0x0000000000000076       0x77 .build/obj_massdrop_ctrl_default/drivers/usb2422.o

.debug_info     0x0000000000000000    0x77565
 .debug_info    0x0000000000000000     0x1694 .build/obj_massdrop_ctrl_default/config_led.o
 .debug_info    0x0000000000001694     0x1691 .build/obj_massdrop_ctrl_default/keyboards/massdrop/ctrl/ctrl.o
 .debug_info    0x0000000000002d25     0x2b9b .build/obj_massdrop_ctrl_default/keyboards/massdrop/ctrl/keymaps/default/keymap.o
 .debug_info    0x00000000000058c0     0x3070 .build/obj_massdrop_ctrl_default/quantum/quantum.o
 .debug_info    0x0000000000008930     0x1394 .build/obj_massdrop_ctrl_default/quantum/led.o
 .debug_info    0x0000000000009cc4     0x28c5 .build/obj_massdrop_ctrl_default/quantum/action.o
 .debug_info    0x000000000000c589     0x144b .build/obj_massdrop_ctrl_default/quantum/action_layer.o
 .debug_info    0x000000000000d9d4     0x1169 .build/obj_massdrop_ctrl_default/quantum/action_macro.o
 .debug_info    0x000000000000eb3d     0x184b .build/obj_massdrop_ctrl_default/quantum/action_tapping.o
 .debug_info    0x0000000000010388     0x14eb .build/obj_massdrop_ctrl_default/quantum/action_util.o
 .debug_info    0x0000000000011873     0x1062 .build/obj_massdrop_ctrl_default/quantum/eeconfig.o
 .debug_info    0x00000000000128d5     0x1852 .build/obj_massdrop_ctrl_default/quantum/keyboard.o
 .debug_info    0x0000000000014127     0x2dba .build/obj_massdrop_ctrl_default/quantum/keymap_common.o
 .debug_info    0x0000000000016ee1      0x69c .build/obj_massdrop_ctrl_default/quantum/keycode_config.o
 .debug_info    0x000000000001757d      0xa0e .build/obj_massdrop_ctrl_default/quantum/logging/debug.o
 .debug_info    0x0000000000017f8b      0x113 .build/obj_massdrop_ctrl_default/quantum/logging/sendchar.o
 .debug_info    0x000000000001809e      0x19d .build/obj_massdrop_ctrl_default/quantum/logging/print.o
 .debug_info    0x000000000001823b      0xf0a .build/obj_massdrop_ctrl_default/quantum/bootmagic/magic.o
 .debug_info    0x0000000000019145     0x15fe .build/obj_massdrop_ctrl_default/quantum/matrix_common.o
 .debug_info    0x000000000001a743     0x1e3f .build/obj_massdrop_ctrl_default/quantum/matrix.o
 .debug_info    0x000000000001c582     0x1376 .build/obj_massdrop_ctrl_default/quantum/debounce/sym_defer_g.o
 .debug_info    0x000000000001d8f8     0x1a58 .build/obj_massdrop_ctrl_default/platforms/arm_atsam/eeprom.o
 .debug_info    0x000000000001f350      0xb8b .build/obj_massdrop_ctrl_default/quantum/color.o
 .debug_info    0x000000000001fedb     0x65fc .build/obj_massdrop_ctrl_default/quantum/rgb_matrix/rgb_matrix.o
 .debug_info    0x00000000000264d7       0xdc .build/obj_massdrop_ctrl_default/lib/lib8tion/lib8tion.o
 .debug_info    0x00000000000265b3     0x263d .build/obj_massdrop_ctrl_default/quantum/process_keycode/process_rgb.o
 .debug_info    0x0000000000028bf0      0x99b .build/obj_massdrop_ctrl_default/quantum/led_tables.o
 .debug_info    0x000000000002958b     0x20a2 .build/obj_massdrop_ctrl_default/quantum/process_keycode/process_magic.o
 .debug_info    0x000000000002b62d     0x2502 .build/obj_massdrop_ctrl_default/quantum/process_keycode/process_grave_esc.o
 .debug_info    0x000000000002db2f     0x259e .build/obj_massdrop_ctrl_default/quantum/process_keycode/process_space_cadet.o
 .debug_info    0x00000000000300cd     0x16dc .build/obj_massdrop_ctrl_default/protocol/host.o
 .debug_info    0x00000000000317a9     0x13ad .build/obj_massdrop_ctrl_default/protocol/report.o
 .debug_info    0x0000000000032b56     0x1711 .build/obj_massdrop_ctrl_default/platforms/arm_atsam/suspend.o
 .debug_info    0x0000000000034267      0x36b .build/obj_massdrop_ctrl_default/platforms/arm_atsam/timer.o
 .debug_info    0x00000000000345d2      0x742 .build/obj_massdrop_ctrl_default/platforms/arm_atsam/bootloader.o
 .debug_info    0x0000000000034d14     0x41a6 .build/obj_massdrop_ctrl_default/protocol/arm_atsam/adc.o
 .debug_info    0x0000000000038eba     0x80d0 .build/obj_massdrop_ctrl_default/protocol/arm_atsam/clks.o
 .debug_info    0x0000000000040f8a     0x2112 .build/obj_massdrop_ctrl_default/protocol/arm_atsam/d51_util.o
 .debug_info    0x000000000004309c     0x70a6 .build/obj_massdrop_ctrl_default/protocol/arm_atsam/i2c_master.o
 .debug_info    0x000000000004a142     0x5e86 .build/obj_massdrop_ctrl_default/protocol/arm_atsam/md_rgb_matrix.o
 .debug_info    0x000000000004ffc8     0x4f53 .build/obj_massdrop_ctrl_default/protocol/arm_atsam/main_arm_atsam.o
 .debug_info    0x0000000000054f1b     0x2682 .build/obj_massdrop_ctrl_default/protocol/arm_atsam/shift_register.o
 .debug_info    0x000000000005759d     0x49f1 .build/obj_massdrop_ctrl_default/protocol/arm_atsam/spi_master.o
 .debug_info    0x000000000005bf8e      0xd2d .build/obj_massdrop_ctrl_default/protocol/arm_atsam/startup.o
 .debug_info    0x000000000005ccbb     0x1043 .build/obj_massdrop_ctrl_default/protocol/arm_atsam/usb/main_usb.o
 .debug_info    0x000000000005dcfe     0x1c92 .build/obj_massdrop_ctrl_default/protocol/arm_atsam/usb/udc.o
 .debug_info    0x000000000005f990     0x10c9 .build/obj_massdrop_ctrl_default/protocol/arm_atsam/usb/udi_cdc.o
 .debug_info    0x0000000000060a59     0x10a2 .build/obj_massdrop_ctrl_default/protocol/arm_atsam/usb/udi_hid.o
 .debug_info    0x0000000000061afb     0x1686 .build/obj_massdrop_ctrl_default/protocol/arm_atsam/usb/udi_hid_kbd.o
 .debug_info    0x0000000000063181     0x11e5 .build/obj_massdrop_ctrl_default/protocol/arm_atsam/usb/udi_hid_kbd_desc.o
 .debug_info    0x0000000000064366      0x16c .build/obj_massdrop_ctrl_default/protocol/arm_atsam/usb/ui.o
 .debug_info    0x00000000000644d2     0x5f6f .build/obj_massdrop_ctrl_default/protocol/arm_atsam/usb/usb.o
 .debug_info    0x000000000006a441     0x4b30 .build/obj_massdrop_ctrl_default/protocol/arm_atsam/usb/usb_device_udd.o
 .debug_info    0x000000000006ef71     0x641f .build/obj_massdrop_ctrl_default/protocol/arm_atsam/usb/usb_hub.o
 .debug_info    0x0000000000075390     0x21d5 .build/obj_massdrop_ctrl_default/drivers/usb2422.o

.debug_abbrev   0x0000000000000000     0xba4d
 .debug_abbrev  0x0000000000000000      0x30d .build/obj_massdrop_ctrl_default/config_led.o
 .debug_abbrev  0x000000000000030d      0x2fb .build/obj_massdrop_ctrl_default/keyboards/massdrop/ctrl/ctrl.o
 .debug_abbrev  0x0000000000000608      0x354 .build/obj_massdrop_ctrl_default/keyboards/massdrop/ctrl/keymaps/default/keymap.o
 .debug_abbrev  0x000000000000095c      0x48f .build/obj_massdrop_ctrl_default/quantum/quantum.o
 .debug_abbrev  0x0000000000000deb      0x313 .build/obj_massdrop_ctrl_default/quantum/led.o
 .debug_abbrev  0x00000000000010fe      0x4fa .build/obj_massdrop_ctrl_default/quantum/action.o
 .debug_abbrev  0x00000000000015f8      0x3dd .build/obj_massdrop_ctrl_default/quantum/action_layer.o
 .debug_abbrev  0x00000000000019d5      0x29a .build/obj_massdrop_ctrl_default/quantum/action_macro.o
 .debug_abbrev  0x0000000000001c6f      0x450 .build/obj_massdrop_ctrl_default/quantum/action_tapping.o
 .debug_abbrev  0x00000000000020bf      0x40d .build/obj_massdrop_ctrl_default/quantum/action_util.o
 .debug_abbrev  0x00000000000024cc      0x27c .build/obj_massdrop_ctrl_default/quantum/eeconfig.o
 .debug_abbrev  0x0000000000002748      0x42f .build/obj_massdrop_ctrl_default/quantum/keyboard.o
 .debug_abbrev  0x0000000000002b77      0x3b1 .build/obj_massdrop_ctrl_default/quantum/keymap_common.o
 .debug_abbrev  0x0000000000002f28      0x131 .build/obj_massdrop_ctrl_default/quantum/keycode_config.o
 .debug_abbrev  0x0000000000003059      0x1f4 .build/obj_massdrop_ctrl_default/quantum/logging/debug.o
 .debug_abbrev  0x000000000000324d       0x96 .build/obj_massdrop_ctrl_default/quantum/logging/sendchar.o
 .debug_abbrev  0x00000000000032e3      0x11a .build/obj_massdrop_ctrl_default/quantum/logging/print.o
 .debug_abbrev  0x00000000000033fd      0x2a4 .build/obj_massdrop_ctrl_default/quantum/bootmagic/magic.o
 .debug_abbrev  0x00000000000036a1      0x41f .build/obj_massdrop_ctrl_default/quantum/matrix_common.o
 .debug_abbrev  0x0000000000003ac0      0x4e2 .build/obj_massdrop_ctrl_default/quantum/matrix.o
 .debug_abbrev  0x0000000000003fa2      0x389 .build/obj_massdrop_ctrl_default/quantum/debounce/sym_defer_g.o
 .debug_abbrev  0x000000000000432b      0x3ec .build/obj_massdrop_ctrl_default/platforms/arm_atsam/eeprom.o
 .debug_abbrev  0x0000000000004717      0x269 .build/obj_massdrop_ctrl_default/quantum/color.o
 .debug_abbrev  0x0000000000004980      0x7e2 .build/obj_massdrop_ctrl_default/quantum/rgb_matrix/rgb_matrix.o
 .debug_abbrev  0x0000000000005162       0x75 .build/obj_massdrop_ctrl_default/lib/lib8tion/lib8tion.o
 .debug_abbrev  0x00000000000051d7      0x2d7 .build/obj_massdrop_ctrl_default/quantum/process_keycode/process_rgb.o
 .debug_abbrev  0x00000000000054ae      0x1cc .build/obj_massdrop_ctrl_default/quantum/led_tables.o
 .debug_abbrev  0x000000000000567a      0x296 .build/obj_massdrop_ctrl_default/quantum/process_keycode/process_magic.o
 .debug_abbrev  0x0000000000005910      0x2e4 .build/obj_massdrop_ctrl_default/quantum/process_keycode/process_grave_esc.o
 .debug_abbrev  0x0000000000005bf4      0x2ea .build/obj_massdrop_ctrl_default/quantum/process_keycode/process_space_cadet.o
 .debug_abbrev  0x0000000000005ede      0x38a .build/obj_massdrop_ctrl_default/protocol/host.o
 .debug_abbrev  0x0000000000006268      0x346 .build/obj_massdrop_ctrl_default/protocol/report.o
 .debug_abbrev  0x00000000000065ae      0x371 .build/obj_massdrop_ctrl_default/platforms/arm_atsam/suspend.o
 .debug_abbrev  0x000000000000691f      0x1ae .build/obj_massdrop_ctrl_default/platforms/arm_atsam/timer.o
 .debug_abbrev  0x0000000000006acd      0x1e5 .build/obj_massdrop_ctrl_default/platforms/arm_atsam/bootloader.o
 .debug_abbrev  0x0000000000006cb2      0x35d .build/obj_massdrop_ctrl_default/protocol/arm_atsam/adc.o
 .debug_abbrev  0x000000000000700f      0x4ee .build/obj_massdrop_ctrl_default/protocol/arm_atsam/clks.o
 .debug_abbrev  0x00000000000074fd      0x2cd .build/obj_massdrop_ctrl_default/protocol/arm_atsam/d51_util.o
 .debug_abbrev  0x00000000000077ca      0x58d .build/obj_massdrop_ctrl_default/protocol/arm_atsam/i2c_master.o
 .debug_abbrev  0x0000000000007d57      0x551 .build/obj_massdrop_ctrl_default/protocol/arm_atsam/md_rgb_matrix.o
 .debug_abbrev  0x00000000000082a8      0x589 .build/obj_massdrop_ctrl_default/protocol/arm_atsam/main_arm_atsam.o
 .debug_abbrev  0x0000000000008831      0x423 .build/obj_massdrop_ctrl_default/protocol/arm_atsam/shift_register.o
 .debug_abbrev  0x0000000000008c54      0x3b1 .build/obj_massdrop_ctrl_default/protocol/arm_atsam/spi_master.o
 .debug_abbrev  0x0000000000009005      0x1ea .build/obj_massdrop_ctrl_default/protocol/arm_atsam/startup.o
 .debug_abbrev  0x00000000000091ef      0x274 .build/obj_massdrop_ctrl_default/protocol/arm_atsam/usb/main_usb.o
 .debug_abbrev  0x0000000000009463      0x57a .build/obj_massdrop_ctrl_default/protocol/arm_atsam/usb/udc.o
 .debug_abbrev  0x00000000000099dd      0x272 .build/obj_massdrop_ctrl_default/protocol/arm_atsam/usb/udi_cdc.o
 .debug_abbrev  0x0000000000009c4f      0x2a5 .build/obj_massdrop_ctrl_default/protocol/arm_atsam/usb/udi_hid.o
 .debug_abbrev  0x0000000000009ef4      0x483 .build/obj_massdrop_ctrl_default/protocol/arm_atsam/usb/udi_hid_kbd.o
 .debug_abbrev  0x000000000000a377      0x237 .build/obj_massdrop_ctrl_default/protocol/arm_atsam/usb/udi_hid_kbd_desc.o
 .debug_abbrev  0x000000000000a5ae       0xc7 .build/obj_massdrop_ctrl_default/protocol/arm_atsam/usb/ui.o
 .debug_abbrev  0x000000000000a675      0x518 .build/obj_massdrop_ctrl_default/protocol/arm_atsam/usb/usb.o
 .debug_abbrev  0x000000000000ab8d      0x659 .build/obj_massdrop_ctrl_default/protocol/arm_atsam/usb/usb_device_udd.o
 .debug_abbrev  0x000000000000b1e6      0x494 .build/obj_massdrop_ctrl_default/protocol/arm_atsam/usb/usb_hub.o
 .debug_abbrev  0x000000000000b67a      0x3d3 .build/obj_massdrop_ctrl_default/drivers/usb2422.o

.debug_loc      0x0000000000000000     0xd45a
 .debug_loc     0x0000000000000000       0x4a .build/obj_massdrop_ctrl_default/config_led.o
 .debug_loc     0x000000000000004a      0x21a .build/obj_massdrop_ctrl_default/keyboards/massdrop/ctrl/keymaps/default/keymap.o
 .debug_loc     0x0000000000000264      0x65a .build/obj_massdrop_ctrl_default/quantum/quantum.o
 .debug_loc     0x00000000000008be       0x89 .build/obj_massdrop_ctrl_default/quantum/led.o
 .debug_loc     0x0000000000000947      0x8c7 .build/obj_massdrop_ctrl_default/quantum/action.o
 .debug_loc     0x000000000000120e      0x4d0 .build/obj_massdrop_ctrl_default/quantum/action_layer.o
 .debug_loc     0x00000000000016de      0x203 .build/obj_massdrop_ctrl_default/quantum/action_macro.o
 .debug_loc     0x00000000000018e1      0x5ad .build/obj_massdrop_ctrl_default/quantum/action_tapping.o
 .debug_loc     0x0000000000001e8e      0x33d .build/obj_massdrop_ctrl_default/quantum/action_util.o
 .debug_loc     0x00000000000021cb      0x18c .build/obj_massdrop_ctrl_default/quantum/eeconfig.o
 .debug_loc     0x0000000000002357      0x1c5 .build/obj_massdrop_ctrl_default/quantum/keyboard.o
 .debug_loc     0x000000000000251c      0x5b7 .build/obj_massdrop_ctrl_default/quantum/keymap_common.o
 .debug_loc     0x0000000000002ad3      0x1c2 .build/obj_massdrop_ctrl_default/quantum/keycode_config.o
 .debug_loc     0x0000000000002c95       0x25 .build/obj_massdrop_ctrl_default/quantum/logging/sendchar.o
 .debug_loc     0x0000000000002cba       0x4a .build/obj_massdrop_ctrl_default/quantum/logging/print.o
 .debug_loc     0x0000000000002d04       0x1a .build/obj_massdrop_ctrl_default/quantum/bootmagic/magic.o
 .debug_loc     0x0000000000002d1e      0x1ff .build/obj_massdrop_ctrl_default/quantum/matrix_common.o
 .debug_loc     0x0000000000002f1d      0x344 .build/obj_massdrop_ctrl_default/quantum/matrix.o
 .debug_loc     0x0000000000003261       0xbc .build/obj_massdrop_ctrl_default/quantum/debounce/sym_defer_g.o
 .debug_loc     0x000000000000331d      0x519 .build/obj_massdrop_ctrl_default/platforms/arm_atsam/eeprom.o
 .debug_loc     0x0000000000003836      0x48f .build/obj_massdrop_ctrl_default/quantum/color.o
 .debug_loc     0x0000000000003cc5     0x4d66 .build/obj_massdrop_ctrl_default/quantum/rgb_matrix/rgb_matrix.o
 .debug_loc     0x0000000000008a2b      0x19a .build/obj_massdrop_ctrl_default/quantum/process_keycode/process_rgb.o
 .debug_loc     0x0000000000008bc5       0x74 .build/obj_massdrop_ctrl_default/quantum/process_keycode/process_magic.o
 .debug_loc     0x0000000000008c39       0xbf .build/obj_massdrop_ctrl_default/quantum/process_keycode/process_grave_esc.o
 .debug_loc     0x0000000000008cf8      0x1d2 .build/obj_massdrop_ctrl_default/quantum/process_keycode/process_space_cadet.o
 .debug_loc     0x0000000000008eca      0x11f .build/obj_massdrop_ctrl_default/protocol/host.o
 .debug_loc     0x0000000000008fe9      0x542 .build/obj_massdrop_ctrl_default/protocol/report.o
 .debug_loc     0x000000000000952b       0x3f .build/obj_massdrop_ctrl_default/platforms/arm_atsam/suspend.o
 .debug_loc     0x000000000000956a       0x68 .build/obj_massdrop_ctrl_default/platforms/arm_atsam/timer.o
 .debug_loc     0x00000000000095d2       0x9f .build/obj_massdrop_ctrl_default/platforms/arm_atsam/bootloader.o
 .debug_loc     0x0000000000009671       0x25 .build/obj_massdrop_ctrl_default/protocol/arm_atsam/adc.o
 .debug_loc     0x0000000000009696      0x1f6 .build/obj_massdrop_ctrl_default/protocol/arm_atsam/clks.o
 .debug_loc     0x000000000000988c      0x316 .build/obj_massdrop_ctrl_default/protocol/arm_atsam/d51_util.o
 .debug_loc     0x0000000000009ba2      0x814 .build/obj_massdrop_ctrl_default/protocol/arm_atsam/i2c_master.o
 .debug_loc     0x000000000000a3b6      0x27f .build/obj_massdrop_ctrl_default/protocol/arm_atsam/md_rgb_matrix.o
 .debug_loc     0x000000000000a635      0x1c6 .build/obj_massdrop_ctrl_default/protocol/arm_atsam/main_arm_atsam.o
 .debug_loc     0x000000000000a7fb       0xea .build/obj_massdrop_ctrl_default/protocol/arm_atsam/shift_register.o
 .debug_loc     0x000000000000a8e5      0x181 .build/obj_massdrop_ctrl_default/protocol/arm_atsam/spi_master.o
 .debug_loc     0x000000000000aa66       0xa5 .build/obj_massdrop_ctrl_default/protocol/arm_atsam/startup.o
 .debug_loc     0x000000000000ab0b      0x4b8 .build/obj_massdrop_ctrl_default/protocol/arm_atsam/usb/udc.o
 .debug_loc     0x000000000000afc3       0x25 .build/obj_massdrop_ctrl_default/protocol/arm_atsam/usb/udi_cdc.o
 .debug_loc     0x000000000000afe8      0x24e .build/obj_massdrop_ctrl_default/protocol/arm_atsam/usb/udi_hid.o
 .debug_loc     0x000000000000b236      0x19b .build/obj_massdrop_ctrl_default/protocol/arm_atsam/usb/udi_hid_kbd.o
 .debug_loc     0x000000000000b3d1      0xe44 .build/obj_massdrop_ctrl_default/protocol/arm_atsam/usb/usb.o
 .debug_loc     0x000000000000c215     0x1096 .build/obj_massdrop_ctrl_default/protocol/arm_atsam/usb/usb_device_udd.o
 .debug_loc     0x000000000000d2ab      0x10e .build/obj_massdrop_ctrl_default/protocol/arm_atsam/usb/usb_hub.o
 .debug_loc     0x000000000000d3b9       0xa1 .build/obj_massdrop_ctrl_default/drivers/usb2422.o

.debug_aranges  0x0000000000000000     0x1958
 .debug_aranges
                0x0000000000000000       0x20 .build/obj_massdrop_ctrl_default/config_led.o
 .debug_aranges
                0x0000000000000020       0x28 .build/obj_massdrop_ctrl_default/keyboards/massdrop/ctrl/ctrl.o
 .debug_aranges
                0x0000000000000048       0x20 .build/obj_massdrop_ctrl_default/keyboards/massdrop/ctrl/keymaps/default/keymap.o
 .debug_aranges
                0x0000000000000068       0xf8 .build/obj_massdrop_ctrl_default/quantum/quantum.o
 .debug_aranges
                0x0000000000000160       0x48 .build/obj_massdrop_ctrl_default/quantum/led.o
 .debug_aranges
                0x00000000000001a8       0xe0 .build/obj_massdrop_ctrl_default/quantum/action.o
 .debug_aranges
                0x0000000000000288       0xe0 .build/obj_massdrop_ctrl_default/quantum/action_layer.o
 .debug_aranges
                0x0000000000000368       0x20 .build/obj_massdrop_ctrl_default/quantum/action_macro.o
 .debug_aranges
                0x0000000000000388       0x48 .build/obj_massdrop_ctrl_default/quantum/action_tapping.o
 .debug_aranges
                0x00000000000003d0      0x178 .build/obj_massdrop_ctrl_default/quantum/action_util.o
 .debug_aranges
                0x0000000000000548       0xd8 .build/obj_massdrop_ctrl_default/quantum/eeconfig.o
 .debug_aranges
                0x0000000000000620       0xb8 .build/obj_massdrop_ctrl_default/quantum/keyboard.o
 .debug_aranges
                0x00000000000006d8       0x48 .build/obj_massdrop_ctrl_default/quantum/keymap_common.o
 .debug_aranges
                0x0000000000000720       0x28 .build/obj_massdrop_ctrl_default/quantum/keycode_config.o
 .debug_aranges
                0x0000000000000748       0x18 .build/obj_massdrop_ctrl_default/quantum/logging/debug.o
 .debug_aranges
                0x0000000000000760       0x20 .build/obj_massdrop_ctrl_default/quantum/logging/sendchar.o
 .debug_aranges
                0x0000000000000780       0x30 .build/obj_massdrop_ctrl_default/quantum/logging/print.o
 .debug_aranges
                0x00000000000007b0       0x28 .build/obj_massdrop_ctrl_default/quantum/bootmagic/magic.o
 .debug_aranges
                0x00000000000007d8       0x98 .build/obj_massdrop_ctrl_default/quantum/matrix_common.o
 .debug_aranges
                0x0000000000000870       0x40 .build/obj_massdrop_ctrl_default/quantum/matrix.o
 .debug_aranges
                0x00000000000008b0       0x38 .build/obj_massdrop_ctrl_default/quantum/debounce/sym_defer_g.o
 .debug_aranges
                0x00000000000008e8       0x68 .build/obj_massdrop_ctrl_default/platforms/arm_atsam/eeprom.o
 .debug_aranges
                0x0000000000000950       0x30 .build/obj_massdrop_ctrl_default/quantum/color.o
 .debug_aranges
                0x0000000000000980      0x4d8 .build/obj_massdrop_ctrl_default/quantum/rgb_matrix/rgb_matrix.o
 .debug_aranges
                0x0000000000000e58       0x18 .build/obj_massdrop_ctrl_default/lib/lib8tion/lib8tion.o
 .debug_aranges
                0x0000000000000e70       0x28 .build/obj_massdrop_ctrl_default/quantum/process_keycode/process_rgb.o
 .debug_aranges
                0x0000000000000e98       0x18 .build/obj_massdrop_ctrl_default/quantum/led_tables.o
 .debug_aranges
                0x0000000000000eb0       0x20 .build/obj_massdrop_ctrl_default/quantum/process_keycode/process_magic.o
 .debug_aranges
                0x0000000000000ed0       0x20 .build/obj_massdrop_ctrl_default/quantum/process_keycode/process_grave_esc.o
 .debug_aranges
                0x0000000000000ef0       0x28 .build/obj_massdrop_ctrl_default/quantum/process_keycode/process_space_cadet.o
 .debug_aranges
                0x0000000000000f18       0x88 .build/obj_massdrop_ctrl_default/protocol/host.o
 .debug_aranges
                0x0000000000000fa0       0x68 .build/obj_massdrop_ctrl_default/protocol/report.o
 .debug_aranges
                0x0000000000001008       0x50 .build/obj_massdrop_ctrl_default/platforms/arm_atsam/suspend.o
 .debug_aranges
                0x0000000000001058       0x58 .build/obj_massdrop_ctrl_default/platforms/arm_atsam/timer.o
 .debug_aranges
                0x00000000000010b0       0x20 .build/obj_massdrop_ctrl_default/platforms/arm_atsam/bootloader.o
 .debug_aranges
                0x00000000000010d0       0x30 .build/obj_massdrop_ctrl_default/protocol/arm_atsam/adc.o
 .debug_aranges
                0x0000000000001100       0x80 .build/obj_massdrop_ctrl_default/protocol/arm_atsam/clks.o
 .debug_aranges
                0x0000000000001180       0x40 .build/obj_massdrop_ctrl_default/protocol/arm_atsam/d51_util.o
 .debug_aranges
                0x00000000000011c0      0x140 .build/obj_massdrop_ctrl_default/protocol/arm_atsam/i2c_master.o
 .debug_aranges
                0x0000000000001300       0x68 .build/obj_massdrop_ctrl_default/protocol/arm_atsam/md_rgb_matrix.o
 .debug_aranges
                0x0000000000001368       0x70 .build/obj_massdrop_ctrl_default/protocol/arm_atsam/main_arm_atsam.o
 .debug_aranges
                0x00000000000013d8       0x58 .build/obj_massdrop_ctrl_default/protocol/arm_atsam/shift_register.o
 .debug_aranges
                0x0000000000001430       0x38 .build/obj_massdrop_ctrl_default/protocol/arm_atsam/spi_master.o
 .debug_aranges
                0x0000000000001468       0x28 .build/obj_massdrop_ctrl_default/protocol/arm_atsam/startup.o
 .debug_aranges
                0x0000000000001490       0x70 .build/obj_massdrop_ctrl_default/protocol/arm_atsam/usb/main_usb.o
 .debug_aranges
                0x0000000000001500       0x70 .build/obj_massdrop_ctrl_default/protocol/arm_atsam/usb/udc.o
 .debug_aranges
                0x0000000000001570       0x40 .build/obj_massdrop_ctrl_default/protocol/arm_atsam/usb/udi_cdc.o
 .debug_aranges
                0x00000000000015b0       0x20 .build/obj_massdrop_ctrl_default/protocol/arm_atsam/usb/udi_hid.o
 .debug_aranges
                0x00000000000015d0       0xb8 .build/obj_massdrop_ctrl_default/protocol/arm_atsam/usb/udi_hid_kbd.o
 .debug_aranges
                0x0000000000001688       0x18 .build/obj_massdrop_ctrl_default/protocol/arm_atsam/usb/udi_hid_kbd_desc.o
 .debug_aranges
                0x00000000000016a0       0x30 .build/obj_massdrop_ctrl_default/protocol/arm_atsam/usb/ui.o
 .debug_aranges
                0x00000000000016d0       0xe0 .build/obj_massdrop_ctrl_default/protocol/arm_atsam/usb/usb.o
 .debug_aranges
                0x00000000000017b0      0x110 .build/obj_massdrop_ctrl_default/protocol/arm_atsam/usb/usb_device_udd.o
 .debug_aranges
                0x00000000000018c0       0x58 .build/obj_massdrop_ctrl_default/protocol/arm_atsam/usb/usb_hub.o
 .debug_aranges
                0x0000000000001918       0x40 .build/obj_massdrop_ctrl_default/drivers/usb2422.o

.debug_ranges   0x0000000000000000     0x2880
 .debug_ranges  0x0000000000000000       0x10 .build/obj_massdrop_ctrl_default/config_led.o
 .debug_ranges  0x0000000000000010       0x18 .build/obj_massdrop_ctrl_default/keyboards/massdrop/ctrl/ctrl.o
 .debug_ranges  0x0000000000000028       0x10 .build/obj_massdrop_ctrl_default/keyboards/massdrop/ctrl/keymaps/default/keymap.o
 .debug_ranges  0x0000000000000038      0x160 .build/obj_massdrop_ctrl_default/quantum/quantum.o
 .debug_ranges  0x0000000000000198       0x38 .build/obj_massdrop_ctrl_default/quantum/led.o
 .debug_ranges  0x00000000000001d0      0x168 .build/obj_massdrop_ctrl_default/quantum/action.o
 .debug_ranges  0x0000000000000338      0x100 .build/obj_massdrop_ctrl_default/quantum/action_layer.o
 .debug_ranges  0x0000000000000438       0x28 .build/obj_massdrop_ctrl_default/quantum/action_macro.o
 .debug_ranges  0x0000000000000460       0xf8 .build/obj_massdrop_ctrl_default/quantum/action_tapping.o
 .debug_ranges  0x0000000000000558      0x168 .build/obj_massdrop_ctrl_default/quantum/action_util.o
 .debug_ranges  0x00000000000006c0       0xc8 .build/obj_massdrop_ctrl_default/quantum/eeconfig.o
 .debug_ranges  0x0000000000000788      0x168 .build/obj_massdrop_ctrl_default/quantum/keyboard.o
 .debug_ranges  0x00000000000008f0       0x38 .build/obj_massdrop_ctrl_default/quantum/keymap_common.o
 .debug_ranges  0x0000000000000928       0x18 .build/obj_massdrop_ctrl_default/quantum/keycode_config.o
 .debug_ranges  0x0000000000000940       0x10 .build/obj_massdrop_ctrl_default/quantum/logging/sendchar.o
 .debug_ranges  0x0000000000000950       0x20 .build/obj_massdrop_ctrl_default/quantum/logging/print.o
 .debug_ranges  0x0000000000000970       0x18 .build/obj_massdrop_ctrl_default/quantum/bootmagic/magic.o
 .debug_ranges  0x0000000000000988       0xb8 .build/obj_massdrop_ctrl_default/quantum/matrix_common.o
 .debug_ranges  0x0000000000000a40       0xf0 .build/obj_massdrop_ctrl_default/quantum/matrix.o
 .debug_ranges  0x0000000000000b30       0x40 .build/obj_massdrop_ctrl_default/quantum/debounce/sym_defer_g.o
 .debug_ranges  0x0000000000000b70       0x88 .build/obj_massdrop_ctrl_default/platforms/arm_atsam/eeprom.o
 .debug_ranges  0x0000000000000bf8       0x20 .build/obj_massdrop_ctrl_default/quantum/color.o
 .debug_ranges  0x0000000000000c18      0xf98 .build/obj_massdrop_ctrl_default/quantum/rgb_matrix/rgb_matrix.o
 .debug_ranges  0x0000000000001bb0       0x30 .build/obj_massdrop_ctrl_default/quantum/process_keycode/process_rgb.o
 .debug_ranges  0x0000000000001be0       0x10 .build/obj_massdrop_ctrl_default/quantum/process_keycode/process_magic.o
 .debug_ranges  0x0000000000001bf0       0x28 .build/obj_massdrop_ctrl_default/quantum/process_keycode/process_grave_esc.o
 .debug_ranges  0x0000000000001c18       0x18 .build/obj_massdrop_ctrl_default/quantum/process_keycode/process_space_cadet.o
 .debug_ranges  0x0000000000001c30       0x78 .build/obj_massdrop_ctrl_default/protocol/host.o
 .debug_ranges  0x0000000000001ca8       0xa0 .build/obj_massdrop_ctrl_default/protocol/report.o
 .debug_ranges  0x0000000000001d48       0x60 .build/obj_massdrop_ctrl_default/platforms/arm_atsam/suspend.o
 .debug_ranges  0x0000000000001da8       0x48 .build/obj_massdrop_ctrl_default/platforms/arm_atsam/timer.o
 .debug_ranges  0x0000000000001df0       0x10 .build/obj_massdrop_ctrl_default/platforms/arm_atsam/bootloader.o
 .debug_ranges  0x0000000000001e00       0x20 .build/obj_massdrop_ctrl_default/protocol/arm_atsam/adc.o
 .debug_ranges  0x0000000000001e20       0x70 .build/obj_massdrop_ctrl_default/protocol/arm_atsam/clks.o
 .debug_ranges  0x0000000000001e90       0x30 .build/obj_massdrop_ctrl_default/protocol/arm_atsam/d51_util.o
 .debug_ranges  0x0000000000001ec0      0x160 .build/obj_massdrop_ctrl_default/protocol/arm_atsam/i2c_master.o
 .debug_ranges  0x0000000000002020       0xb8 .build/obj_massdrop_ctrl_default/protocol/arm_atsam/md_rgb_matrix.o
 .debug_ranges  0x00000000000020d8       0x90 .build/obj_massdrop_ctrl_default/protocol/arm_atsam/main_arm_atsam.o
 .debug_ranges  0x0000000000002168       0x78 .build/obj_massdrop_ctrl_default/protocol/arm_atsam/shift_register.o
 .debug_ranges  0x00000000000021e0       0x40 .build/obj_massdrop_ctrl_default/protocol/arm_atsam/spi_master.o
 .debug_ranges  0x0000000000002220       0x18 .build/obj_massdrop_ctrl_default/protocol/arm_atsam/startup.o
 .debug_ranges  0x0000000000002238       0x60 .build/obj_massdrop_ctrl_default/protocol/arm_atsam/usb/main_usb.o
 .debug_ranges  0x0000000000002298      0x160 .build/obj_massdrop_ctrl_default/protocol/arm_atsam/usb/udc.o
 .debug_ranges  0x00000000000023f8       0x30 .build/obj_massdrop_ctrl_default/protocol/arm_atsam/usb/udi_cdc.o
 .debug_ranges  0x0000000000002428       0x28 .build/obj_massdrop_ctrl_default/protocol/arm_atsam/usb/udi_hid.o
 .debug_ranges  0x0000000000002450       0xa8 .build/obj_massdrop_ctrl_default/protocol/arm_atsam/usb/udi_hid_kbd.o
 .debug_ranges  0x00000000000024f8       0x20 .build/obj_massdrop_ctrl_default/protocol/arm_atsam/usb/ui.o
 .debug_ranges  0x0000000000002518      0x130 .build/obj_massdrop_ctrl_default/protocol/arm_atsam/usb/usb.o
 .debug_ranges  0x0000000000002648      0x190 .build/obj_massdrop_ctrl_default/protocol/arm_atsam/usb/usb_device_udd.o
 .debug_ranges  0x00000000000027d8       0x48 .build/obj_massdrop_ctrl_default/protocol/arm_atsam/usb/usb_hub.o
 .debug_ranges  0x0000000000002820       0x60 .build/obj_massdrop_ctrl_default/drivers/usb2422.o

.debug_line     0x0000000000000000    0x18fdb
 .debug_line    0x0000000000000000      0x477 .build/obj_massdrop_ctrl_default/config_led.o
 .debug_line    0x0000000000000477      0x492 .build/obj_massdrop_ctrl_default/keyboards/massdrop/ctrl/ctrl.o
 .debug_line    0x0000000000000909      0x5da .build/obj_massdrop_ctrl_default/keyboards/massdrop/ctrl/keymaps/default/keymap.o
 .debug_line    0x0000000000000ee3      0xaf0 .build/obj_massdrop_ctrl_default/quantum/quantum.o
 .debug_line    0x00000000000019d3      0x457 .build/obj_massdrop_ctrl_default/quantum/led.o
 .debug_line    0x0000000000001e2a      0xce7 .build/obj_massdrop_ctrl_default/quantum/action.o
 .debug_line    0x0000000000002b11      0x67d .build/obj_massdrop_ctrl_default/quantum/action_layer.o
 .debug_line    0x000000000000318e      0x3af .build/obj_massdrop_ctrl_default/quantum/action_macro.o
 .debug_line    0x000000000000353d      0x90f .build/obj_massdrop_ctrl_default/quantum/action_tapping.o
 .debug_line    0x0000000000003e4c      0x950 .build/obj_massdrop_ctrl_default/quantum/action_util.o
 .debug_line    0x000000000000479c      0x543 .build/obj_massdrop_ctrl_default/quantum/eeconfig.o
 .debug_line    0x0000000000004cdf      0x77c .build/obj_massdrop_ctrl_default/quantum/keyboard.o
 .debug_line    0x000000000000545b      0x628 .build/obj_massdrop_ctrl_default/quantum/keymap_common.o
 .debug_line    0x0000000000005a83      0x3d1 .build/obj_massdrop_ctrl_default/quantum/keycode_config.o
 .debug_line    0x0000000000005e54      0x216 .build/obj_massdrop_ctrl_default/quantum/logging/debug.o
 .debug_line    0x000000000000606a      0x1a0 .build/obj_massdrop_ctrl_default/quantum/logging/sendchar.o
 .debug_line    0x000000000000620a      0x1dc .build/obj_massdrop_ctrl_default/quantum/logging/print.o
 .debug_line    0x00000000000063e6      0x358 .build/obj_massdrop_ctrl_default/quantum/bootmagic/magic.o
 .debug_line    0x000000000000673e      0x636 .build/obj_massdrop_ctrl_default/quantum/matrix_common.o
 .debug_line    0x0000000000006d74      0x663 .build/obj_massdrop_ctrl_default/quantum/matrix.o
 .debug_line    0x00000000000073d7      0x4b0 .build/obj_massdrop_ctrl_default/quantum/debounce/sym_defer_g.o
 .debug_line    0x0000000000007887      0x549 .build/obj_massdrop_ctrl_default/platforms/arm_atsam/eeprom.o
 .debug_line    0x0000000000007dd0      0x35e .build/obj_massdrop_ctrl_default/quantum/color.o
 .debug_line    0x000000000000812e     0x3711 .build/obj_massdrop_ctrl_default/quantum/rgb_matrix/rgb_matrix.o
 .debug_line    0x000000000000b83f      0x184 .build/obj_massdrop_ctrl_default/lib/lib8tion/lib8tion.o
 .debug_line    0x000000000000b9c3      0x49e .build/obj_massdrop_ctrl_default/quantum/process_keycode/process_rgb.o
 .debug_line    0x000000000000be61      0x218 .build/obj_massdrop_ctrl_default/quantum/led_tables.o
 .debug_line    0x000000000000c079      0x571 .build/obj_massdrop_ctrl_default/quantum/process_keycode/process_magic.o
 .debug_line    0x000000000000c5ea      0x457 .build/obj_massdrop_ctrl_default/quantum/process_keycode/process_grave_esc.o
 .debug_line    0x000000000000ca41      0x54a .build/obj_massdrop_ctrl_default/quantum/process_keycode/process_space_cadet.o
 .debug_line    0x000000000000cf8b      0x604 .build/obj_massdrop_ctrl_default/protocol/host.o
 .debug_line    0x000000000000d58f      0x59d .build/obj_massdrop_ctrl_default/protocol/report.o
 .debug_line    0x000000000000db2c      0x51d .build/obj_massdrop_ctrl_default/platforms/arm_atsam/suspend.o
 .debug_line    0x000000000000e049      0x2ac .build/obj_massdrop_ctrl_default/platforms/arm_atsam/timer.o
 .debug_line    0x000000000000e2f5      0x35f .build/obj_massdrop_ctrl_default/platforms/arm_atsam/bootloader.o
 .debug_line    0x000000000000e654      0x745 .build/obj_massdrop_ctrl_default/protocol/arm_atsam/adc.o
 .debug_line    0x000000000000ed99      0xe65 .build/obj_massdrop_ctrl_default/protocol/arm_atsam/clks.o
 .debug_line    0x000000000000fbfe      0x709 .build/obj_massdrop_ctrl_default/protocol/arm_atsam/d51_util.o
 .debug_line    0x0000000000010307     0x11c8 .build/obj_massdrop_ctrl_default/protocol/arm_atsam/i2c_master.o
 .debug_line    0x00000000000114cf      0xc0b .build/obj_massdrop_ctrl_default/protocol/arm_atsam/md_rgb_matrix.o
 .debug_line    0x00000000000120da      0xa62 .build/obj_massdrop_ctrl_default/protocol/arm_atsam/main_arm_atsam.o
 .debug_line    0x0000000000012b3c      0x665 .build/obj_massdrop_ctrl_default/protocol/arm_atsam/shift_register.o
 .debug_line    0x00000000000131a1      0x6c2 .build/obj_massdrop_ctrl_default/protocol/arm_atsam/spi_master.o
 .debug_line    0x0000000000013863      0x2a8 .build/obj_massdrop_ctrl_default/protocol/arm_atsam/startup.o
 .debug_line    0x0000000000013b0b      0x414 .build/obj_massdrop_ctrl_default/protocol/arm_atsam/usb/main_usb.o
 .debug_line    0x0000000000013f1f      0xaf4 .build/obj_massdrop_ctrl_default/protocol/arm_atsam/usb/udc.o
 .debug_line    0x0000000000014a13      0x3ab .build/obj_massdrop_ctrl_default/protocol/arm_atsam/usb/udi_cdc.o
 .debug_line    0x0000000000014dbe      0x430 .build/obj_massdrop_ctrl_default/protocol/arm_atsam/usb/udi_hid.o
 .debug_line    0x00000000000151ee      0x749 .build/obj_massdrop_ctrl_default/protocol/arm_atsam/usb/udi_hid_kbd.o
 .debug_line    0x0000000000015937      0x30c .build/obj_massdrop_ctrl_default/protocol/arm_atsam/usb/udi_hid_kbd_desc.o
 .debug_line    0x0000000000015c43      0x1dc .build/obj_massdrop_ctrl_default/protocol/arm_atsam/usb/ui.o
 .debug_line    0x0000000000015e1f     0x115e .build/obj_massdrop_ctrl_default/protocol/arm_atsam/usb/usb.o
 .debug_line    0x0000000000016f7d     0x1186 .build/obj_massdrop_ctrl_default/protocol/arm_atsam/usb/usb_device_udd.o
 .debug_line    0x0000000000018103      0xafa .build/obj_massdrop_ctrl_default/protocol/arm_atsam/usb/usb_hub.o
 .debug_line    0x0000000000018bfd      0x3de .build/obj_massdrop_ctrl_default/drivers/usb2422.o

.debug_str      0x0000000000000000     0xe656
 .debug_str     0x0000000000000000      0xc2b .build/obj_massdrop_ctrl_default/config_led.o
                                        0xd9e (size before relaxing)
 .debug_str     0x0000000000000c2b       0x6c .build/obj_massdrop_ctrl_default/keyboards/massdrop/ctrl/ctrl.o
                                        0xd9d (size before relaxing)
 .debug_str     0x0000000000000c97     0x2052 .build/obj_massdrop_ctrl_default/keyboards/massdrop/ctrl/keymaps/default/keymap.o
                                       0x2dbd (size before relaxing)
 .debug_str     0x0000000000002ce9      0x48d .build/obj_massdrop_ctrl_default/quantum/quantum.o
                                       0x2d4a (size before relaxing)
 .debug_str     0x0000000000003176       0x78 .build/obj_massdrop_ctrl_default/quantum/led.o
                                        0xbec (size before relaxing)
 .debug_str     0x00000000000031ee      0x9d1 .build/obj_massdrop_ctrl_default/quantum/action.o
                                       0x1e01 (size before relaxing)
 .debug_str     0x0000000000003bbf       0xe3 .build/obj_massdrop_ctrl_default/quantum/action_layer.o
                                        0xa1e (size before relaxing)
 .debug_str     0x0000000000003ca2       0x6b .build/obj_massdrop_ctrl_default/quantum/action_macro.o
                                        0xec7 (size before relaxing)
 .debug_str     0x0000000000003d0d       0xfe .build/obj_massdrop_ctrl_default/quantum/action_tapping.o
                                       0x113e (size before relaxing)
 .debug_str     0x0000000000003e0b      0x27d .build/obj_massdrop_ctrl_default/quantum/action_util.o
                                        0xc6c (size before relaxing)
 .debug_str     0x0000000000004088      0x25b .build/obj_massdrop_ctrl_default/quantum/eeconfig.o
                                        0x8fe (size before relaxing)
 .debug_str     0x00000000000042e3      0x34f .build/obj_massdrop_ctrl_default/quantum/keyboard.o
                                        0xf59 (size before relaxing)
 .debug_str     0x0000000000004632       0x8a .build/obj_massdrop_ctrl_default/quantum/keymap_common.o
                                       0x3112 (size before relaxing)
 .debug_str     0x00000000000046bc       0x6a .build/obj_massdrop_ctrl_default/quantum/keycode_config.o
                                        0xa47 (size before relaxing)
 .debug_str     0x0000000000004726       0x18 .build/obj_massdrop_ctrl_default/quantum/logging/debug.o
                                        0x659 (size before relaxing)
 .debug_str     0x000000000000473e       0x1b .build/obj_massdrop_ctrl_default/quantum/logging/sendchar.o
                                        0x24c (size before relaxing)
 .debug_str     0x0000000000004759       0x4e .build/obj_massdrop_ctrl_default/quantum/logging/print.o
                                        0x298 (size before relaxing)
 .debug_str     0x00000000000047a7       0x24 .build/obj_massdrop_ctrl_default/quantum/bootmagic/magic.o
                                        0xa87 (size before relaxing)
 .debug_str     0x00000000000047cb      0x117 .build/obj_massdrop_ctrl_default/quantum/matrix_common.o
                                        0xd53 (size before relaxing)
 .debug_str     0x00000000000048e2      0x2c8 .build/obj_massdrop_ctrl_default/quantum/matrix.o
                                        0xf06 (size before relaxing)
 .debug_str     0x0000000000004baa       0x88 .build/obj_massdrop_ctrl_default/quantum/debounce/sym_defer_g.o
                                        0xc33 (size before relaxing)
 .debug_str     0x0000000000004c32      0x338 .build/obj_massdrop_ctrl_default/platforms/arm_atsam/eeprom.o
                                        0xa9a (size before relaxing)
 .debug_str     0x0000000000004f6a       0x5d .build/obj_massdrop_ctrl_default/quantum/color.o
                                        0x67b (size before relaxing)
 .debug_str     0x0000000000004fc7     0x11aa .build/obj_massdrop_ctrl_default/quantum/rgb_matrix/rgb_matrix.o
                                       0x21b7 (size before relaxing)
 .debug_str     0x0000000000006171       0x18 .build/obj_massdrop_ctrl_default/lib/lib8tion/lib8tion.o
                                        0x23d (size before relaxing)
 .debug_str     0x0000000000006189       0x65 .build/obj_massdrop_ctrl_default/quantum/process_keycode/process_rgb.o
                                       0x2d18 (size before relaxing)
 .debug_str     0x00000000000061ee       0x15 .build/obj_massdrop_ctrl_default/quantum/led_tables.o
                                        0x61c (size before relaxing)
 .debug_str     0x0000000000006203       0x28 .build/obj_massdrop_ctrl_default/quantum/process_keycode/process_magic.o
                                       0x21c1 (size before relaxing)
 .debug_str     0x000000000000622b       0x42 .build/obj_massdrop_ctrl_default/quantum/process_keycode/process_grave_esc.o
                                       0x2880 (size before relaxing)
 .debug_str     0x000000000000626d       0x7b .build/obj_massdrop_ctrl_default/quantum/process_keycode/process_space_cadet.o
                                       0x28b7 (size before relaxing)
 .debug_str     0x00000000000062e8      0x18c .build/obj_massdrop_ctrl_default/protocol/host.o
                                        0xdf4 (size before relaxing)
 .debug_str     0x0000000000006474       0x72 .build/obj_massdrop_ctrl_default/protocol/report.o
                                        0xf26 (size before relaxing)
 .debug_str     0x00000000000064e6       0xa1 .build/obj_massdrop_ctrl_default/platforms/arm_atsam/suspend.o
                                        0xde7 (size before relaxing)
 .debug_str     0x0000000000006587       0x40 .build/obj_massdrop_ctrl_default/platforms/arm_atsam/timer.o
                                        0x35b (size before relaxing)
 .debug_str     0x00000000000065c7      0x181 .build/obj_massdrop_ctrl_default/platforms/arm_atsam/bootloader.o
                                        0x40a (size before relaxing)
 .debug_str     0x0000000000006748     0x19d0 .build/obj_massdrop_ctrl_default/protocol/arm_atsam/adc.o
                                       0x29d9 (size before relaxing)
 .debug_str     0x0000000000008118     0x1974 .build/obj_massdrop_ctrl_default/protocol/arm_atsam/clks.o
                                       0x3f04 (size before relaxing)
 .debug_str     0x0000000000009a8c      0x269 .build/obj_massdrop_ctrl_default/protocol/arm_atsam/d51_util.o
                                       0x1ee3 (size before relaxing)
 .debug_str     0x0000000000009cf5      0x9f3 .build/obj_massdrop_ctrl_default/protocol/arm_atsam/i2c_master.o
                                       0x3cf3 (size before relaxing)
 .debug_str     0x000000000000a6e8      0x140 .build/obj_massdrop_ctrl_default/protocol/arm_atsam/md_rgb_matrix.o
                                       0x32b7 (size before relaxing)
 .debug_str     0x000000000000a828      0x8b9 .build/obj_massdrop_ctrl_default/protocol/arm_atsam/main_arm_atsam.o
                                       0x2e6c (size before relaxing)
 .debug_str     0x000000000000b0e1       0xa5 .build/obj_massdrop_ctrl_default/protocol/arm_atsam/shift_register.o
                                       0x14da (size before relaxing)
 .debug_str     0x000000000000b186       0x5e .build/obj_massdrop_ctrl_default/protocol/arm_atsam/spi_master.o
                                       0x2ad4 (size before relaxing)
 .debug_str     0x000000000000b1e4      0xb4c .build/obj_massdrop_ctrl_default/protocol/arm_atsam/startup.o
                                        0xe1b (size before relaxing)
 .debug_str     0x000000000000bd30      0x154 .build/obj_massdrop_ctrl_default/protocol/arm_atsam/usb/main_usb.o
                                        0xba4 (size before relaxing)
 .debug_str     0x000000000000be84      0x943 .build/obj_massdrop_ctrl_default/protocol/arm_atsam/usb/udc.o
                                       0x13d6 (size before relaxing)
 .debug_str     0x000000000000c7c7       0x50 .build/obj_massdrop_ctrl_default/protocol/arm_atsam/usb/udi_cdc.o
                                        0xb61 (size before relaxing)
 .debug_str     0x000000000000c817      0x1b1 .build/obj_massdrop_ctrl_default/protocol/arm_atsam/usb/udi_hid.o
                                        0xd1d (size before relaxing)
 .debug_str     0x000000000000c9c8      0x447 .build/obj_massdrop_ctrl_default/protocol/arm_atsam/usb/udi_hid_kbd.o
                                       0x101b (size before relaxing)
 .debug_str     0x000000000000ce0f      0x111 .build/obj_massdrop_ctrl_default/protocol/arm_atsam/usb/udi_hid_kbd_desc.o
                                        0xd5f (size before relaxing)
 .debug_str     0x000000000000cf20       0x44 .build/obj_massdrop_ctrl_default/protocol/arm_atsam/usb/ui.o
                                        0x2bb (size before relaxing)
 .debug_str     0x000000000000cf64      0xcaf .build/obj_massdrop_ctrl_default/protocol/arm_atsam/usb/usb.o
                                       0x2b4c (size before relaxing)
 .debug_str     0x000000000000dc13      0x4df .build/obj_massdrop_ctrl_default/protocol/arm_atsam/usb/usb_device_udd.o
                                       0x2363 (size before relaxing)
 .debug_str     0x000000000000e0f2       0xce .build/obj_massdrop_ctrl_default/protocol/arm_atsam/usb/usb_hub.o
                                       0x3264 (size before relaxing)
 .debug_str     0x000000000000e1c0      0x496 .build/obj_massdrop_ctrl_default/drivers/usb2422.o
                                        0xecc (size before relaxing)

.debug_frame    0x0000000000000000     0x42d8
 .debug_frame   0x0000000000000000       0x20 .build/obj_massdrop_ctrl_default/config_led.o
 .debug_frame   0x0000000000000020       0x30 .build/obj_massdrop_ctrl_default/keyboards/massdrop/ctrl/ctrl.o
 .debug_frame   0x0000000000000050       0x2c .build/obj_massdrop_ctrl_default/keyboards/massdrop/ctrl/keymaps/default/keymap.o
 .debug_frame   0x000000000000007c      0x2fc .build/obj_massdrop_ctrl_default/quantum/quantum.o
 .debug_frame   0x0000000000000378       0x88 .build/obj_massdrop_ctrl_default/quantum/led.o
 .debug_frame   0x0000000000000400      0x304 .build/obj_massdrop_ctrl_default/quantum/action.o
 .debug_frame   0x0000000000000704      0x240 .build/obj_massdrop_ctrl_default/quantum/action_layer.o
 .debug_frame   0x0000000000000944       0x30 .build/obj_massdrop_ctrl_default/quantum/action_macro.o
 .debug_frame   0x0000000000000974       0xd4 .build/obj_massdrop_ctrl_default/quantum/action_tapping.o
 .debug_frame   0x0000000000000a48      0x378 .build/obj_massdrop_ctrl_default/quantum/action_util.o
 .debug_frame   0x0000000000000dc0      0x1cc .build/obj_massdrop_ctrl_default/quantum/eeconfig.o
 .debug_frame   0x0000000000000f8c      0x210 .build/obj_massdrop_ctrl_default/quantum/keyboard.o
 .debug_frame   0x000000000000119c       0x8c .build/obj_massdrop_ctrl_default/quantum/keymap_common.o
 .debug_frame   0x0000000000001228       0x30 .build/obj_massdrop_ctrl_default/quantum/keycode_config.o
 .debug_frame   0x0000000000001258       0x20 .build/obj_massdrop_ctrl_default/quantum/logging/sendchar.o
 .debug_frame   0x0000000000001278       0x40 .build/obj_massdrop_ctrl_default/quantum/logging/print.o
 .debug_frame   0x00000000000012b8       0x3c .build/obj_massdrop_ctrl_default/quantum/bootmagic/magic.o
 .debug_frame   0x00000000000012f4      0x184 .build/obj_massdrop_ctrl_default/quantum/matrix_common.o
 .debug_frame   0x0000000000001478       0x94 .build/obj_massdrop_ctrl_default/quantum/matrix.o
 .debug_frame   0x000000000000150c       0x60 .build/obj_massdrop_ctrl_default/quantum/debounce/sym_defer_g.o
 .debug_frame   0x000000000000156c      0x150 .build/obj_massdrop_ctrl_default/platforms/arm_atsam/eeprom.o
 .debug_frame   0x00000000000016bc       0x64 .build/obj_massdrop_ctrl_default/quantum/color.o
 .debug_frame   0x0000000000001720      0xda0 .build/obj_massdrop_ctrl_default/quantum/rgb_matrix/rgb_matrix.o
 .debug_frame   0x00000000000024c0       0x3c .build/obj_massdrop_ctrl_default/quantum/process_keycode/process_rgb.o
 .debug_frame   0x00000000000024fc       0x2c .build/obj_massdrop_ctrl_default/quantum/process_keycode/process_magic.o
 .debug_frame   0x0000000000002528       0x28 .build/obj_massdrop_ctrl_default/quantum/process_keycode/process_grave_esc.o
 .debug_frame   0x0000000000002550       0x68 .build/obj_massdrop_ctrl_default/quantum/process_keycode/process_space_cadet.o
 .debug_frame   0x00000000000025b8      0x100 .build/obj_massdrop_ctrl_default/protocol/host.o
 .debug_frame   0x00000000000026b8       0xec .build/obj_massdrop_ctrl_default/protocol/report.o
 .debug_frame   0x00000000000027a4       0xd8 .build/obj_massdrop_ctrl_default/platforms/arm_atsam/suspend.o
 .debug_frame   0x000000000000287c       0x90 .build/obj_massdrop_ctrl_default/platforms/arm_atsam/timer.o
 .debug_frame   0x000000000000290c       0x30 .build/obj_massdrop_ctrl_default/platforms/arm_atsam/bootloader.o
 .debug_frame   0x000000000000293c       0x48 .build/obj_massdrop_ctrl_default/protocol/arm_atsam/adc.o
 .debug_frame   0x0000000000002984      0x154 .build/obj_massdrop_ctrl_default/protocol/arm_atsam/clks.o
 .debug_frame   0x0000000000002ad8       0x8c .build/obj_massdrop_ctrl_default/protocol/arm_atsam/d51_util.o
 .debug_frame   0x0000000000002b64      0x384 .build/obj_massdrop_ctrl_default/protocol/arm_atsam/i2c_master.o
 .debug_frame   0x0000000000002ee8      0x138 .build/obj_massdrop_ctrl_default/protocol/arm_atsam/md_rgb_matrix.o
 .debug_frame   0x0000000000003020      0x124 .build/obj_massdrop_ctrl_default/protocol/arm_atsam/main_arm_atsam.o
 .debug_frame   0x0000000000003144       0xc4 .build/obj_massdrop_ctrl_default/protocol/arm_atsam/shift_register.o
 .debug_frame   0x0000000000003208       0x64 .build/obj_massdrop_ctrl_default/protocol/arm_atsam/spi_master.o
 .debug_frame   0x000000000000326c       0x38 .build/obj_massdrop_ctrl_default/protocol/arm_atsam/startup.o
 .debug_frame   0x00000000000032a4       0xcc .build/obj_massdrop_ctrl_default/protocol/arm_atsam/usb/main_usb.o
 .debug_frame   0x0000000000003370      0x120 .build/obj_massdrop_ctrl_default/protocol/arm_atsam/usb/udc.o
 .debug_frame   0x0000000000003490       0x74 .build/obj_massdrop_ctrl_default/protocol/arm_atsam/usb/udi_cdc.o
 .debug_frame   0x0000000000003504       0x3c .build/obj_massdrop_ctrl_default/protocol/arm_atsam/usb/udi_hid.o
 .debug_frame   0x0000000000003540      0x1d0 .build/obj_massdrop_ctrl_default/protocol/arm_atsam/usb/udi_hid_kbd.o
 .debug_frame   0x0000000000003710       0x80 .build/obj_massdrop_ctrl_default/protocol/arm_atsam/usb/ui.o
 .debug_frame   0x0000000000003790      0x244 .build/obj_massdrop_ctrl_default/protocol/arm_atsam/usb/usb.o
 .debug_frame   0x00000000000039d4      0x39c .build/obj_massdrop_ctrl_default/protocol/arm_atsam/usb/usb_device_udd.o
 .debug_frame   0x0000000000003d70      0x108 .build/obj_massdrop_ctrl_default/protocol/arm_atsam/usb/usb_hub.o
 .debug_frame   0x0000000000003e78       0x78 .build/obj_massdrop_ctrl_default/drivers/usb2422.o
 .debug_frame   0x0000000000003ef0       0xac /opt/homebrew/Cellar/arm-gcc-bin@8/8-2019-q3-update_1/bin/../lib/gcc/arm-none-eabi/8.3.1/thumb/v7e-m+fp/hard/libgcc.a(_arm_addsubdf3.o)
 .debug_frame   0x0000000000003f9c       0x50 /opt/homebrew/Cellar/arm-gcc-bin@8/8-2019-q3-update_1/bin/../lib/gcc/arm-none-eabi/8.3.1/thumb/v7e-m+fp/hard/libgcc.a(_arm_muldivdf3.o)
 .debug_frame   0x0000000000003fec       0x24 /opt/homebrew/Cellar/arm-gcc-bin@8/8-2019-q3-update_1/bin/../lib/gcc/arm-none-eabi/8.3.1/thumb/v7e-m+fp/hard/libgcc.a(_arm_fixunsdfsi.o)
 .debug_frame   0x0000000000004010       0x2c /opt/homebrew/Cellar/arm-gcc-bin@8/8-2019-q3-update_1/bin/../lib/gcc/arm-none-eabi/8.3.1/thumb/v7e-m+fp/hard/libgcc.a(_aeabi_uldivmod.o)
 .debug_frame   0x000000000000403c       0x34 /opt/homebrew/Cellar/arm-gcc-bin@8/8-2019-q3-update_1/bin/../lib/gcc/arm-none-eabi/8.3.1/thumb/v7e-m+fp/hard/libgcc.a(_udivmoddi4.o)
 .debug_frame   0x0000000000004070       0x2c /opt/homebrew/Cellar/arm-gcc-bin@8/8-2019-q3-update_1/bin/../lib/gcc/arm-none-eabi/8.3.1/../../../../arm-none-eabi/lib/thumb/v7e-m+fp/hard/libg.a(lib_a-init.o)
 .debug_frame   0x000000000000409c       0x38 /opt/homebrew/Cellar/arm-gcc-bin@8/8-2019-q3-update_1/bin/../lib/gcc/arm-none-eabi/8.3.1/../../../../arm-none-eabi/lib/thumb/v7e-m+fp/hard/libg.a(lib_a-memcmp.o)
 .debug_frame   0x00000000000040d4       0x38 /opt/homebrew/Cellar/arm-gcc-bin@8/8-2019-q3-update_1/bin/../lib/gcc/arm-none-eabi/8.3.1/../../../../arm-none-eabi/lib/thumb/v7e-m+fp/hard/libg.a(lib_a-memset.o)
 .debug_frame   0x000000000000410c       0x3c /opt/homebrew/Cellar/arm-gcc-bin@8/8-2019-q3-update_1/bin/../lib/gcc/arm-none-eabi/8.3.1/../../../../arm-none-eabi/lib/thumb/v7e-m+fp/hard/libg.a(lib_a-rand.o)
 .debug_frame   0x0000000000004148       0x5c /opt/homebrew/Cellar/arm-gcc-bin@8/8-2019-q3-update_1/bin/../lib/gcc/arm-none-eabi/8.3.1/../../../../arm-none-eabi/lib/thumb/v7e-m+fp/hard/libg.a(lib_a-__call_atexit.o)
 .debug_frame   0x00000000000041a4       0x20 /opt/homebrew/Cellar/arm-gcc-bin@8/8-2019-q3-update_1/bin/../lib/gcc/arm-none-eabi/8.3.1/../../../../arm-none-eabi/lib/thumb/v7e-m+fp/hard/libg.a(lib_a-atexit.o)
 .debug_frame   0x00000000000041c4       0x34 /opt/homebrew/Cellar/arm-gcc-bin@8/8-2019-q3-update_1/bin/../lib/gcc/arm-none-eabi/8.3.1/../../../../arm-none-eabi/lib/thumb/v7e-m+fp/hard/libg.a(lib_a-fini.o)
 .debug_frame   0x00000000000041f8       0xb0 /opt/homebrew/Cellar/arm-gcc-bin@8/8-2019-q3-update_1/bin/../lib/gcc/arm-none-eabi/8.3.1/../../../../arm-none-eabi/lib/thumb/v7e-m+fp/hard/libg.a(lib_a-lock.o)
 .debug_frame   0x00000000000042a8       0x30 /opt/homebrew/Cellar/arm-gcc-bin@8/8-2019-q3-update_1/bin/../lib/gcc/arm-none-eabi/8.3.1/../../../../arm-none-eabi/lib/thumb/v7e-m+fp/hard/libg.a(lib_a-__atexit.o)

Cross Reference Table

Symbol                                            File
AC_Handler                                        .build/obj_massdrop_ctrl_default/protocol/arm_atsam/startup.o
ADC0_0_Handler                                    .build/obj_massdrop_ctrl_default/protocol/arm_atsam/startup.o
ADC0_1_Handler                                    .build/obj_massdrop_ctrl_default/protocol/arm_atsam/startup.o
ADC0_clock_init                                   .build/obj_massdrop_ctrl_default/protocol/arm_atsam/adc.o
                                                  .build/obj_massdrop_ctrl_default/protocol/arm_atsam/clks.o
ADC0_init                                         .build/obj_massdrop_ctrl_default/protocol/arm_atsam/adc.o
                                                  .build/obj_massdrop_ctrl_default/protocol/arm_atsam/main_arm_atsam.o
ADC1_0_Handler                                    .build/obj_massdrop_ctrl_default/protocol/arm_atsam/startup.o
ADC1_1_Handler                                    .build/obj_massdrop_ctrl_default/protocol/arm_atsam/startup.o
AES_Handler                                       .build/obj_massdrop_ctrl_default/protocol/arm_atsam/startup.o
ALPHAS_MODS                                       .build/obj_massdrop_ctrl_default/quantum/rgb_matrix/rgb_matrix.o
BAND_PINWHEEL_SAT                                 .build/obj_massdrop_ctrl_default/quantum/rgb_matrix/rgb_matrix.o
BAND_PINWHEEL_VAL                                 .build/obj_massdrop_ctrl_default/quantum/rgb_matrix/rgb_matrix.o
BAND_SAT                                          .build/obj_massdrop_ctrl_default/quantum/rgb_matrix/rgb_matrix.o
BAND_SPIRAL_SAT                                   .build/obj_massdrop_ctrl_default/quantum/rgb_matrix/rgb_matrix.o
BAND_SPIRAL_VAL                                   .build/obj_massdrop_ctrl_default/quantum/rgb_matrix/rgb_matrix.o
BAND_VAL                                          .build/obj_massdrop_ctrl_default/quantum/rgb_matrix/rgb_matrix.o
BREATHING                                         .build/obj_massdrop_ctrl_default/quantum/rgb_matrix/rgb_matrix.o
BusFault_Handler                                  .build/obj_massdrop_ctrl_default/protocol/arm_atsam/startup.o
CDC_init                                          .build/obj_massdrop_ctrl_default/protocol/arm_atsam/usb/udi_cdc.o
                                                  .build/obj_massdrop_ctrl_default/protocol/arm_atsam/main_arm_atsam.o
CDC_input                                         .build/obj_massdrop_ctrl_default/protocol/arm_atsam/usb/udi_cdc.o
CDC_print                                         .build/obj_massdrop_ctrl_default/protocol/arm_atsam/usb/udi_cdc.o
                                                  .build/obj_massdrop_ctrl_default/protocol/arm_atsam/usb/usb_hub.o
                                                  .build/obj_massdrop_ctrl_default/protocol/arm_atsam/md_rgb_matrix.o
CDC_printf                                        .build/obj_massdrop_ctrl_default/protocol/arm_atsam/usb/udi_cdc.o
CDC_send                                          .build/obj_massdrop_ctrl_default/protocol/arm_atsam/usb/udi_cdc.o
CIE1931_CURVE                                     .build/obj_massdrop_ctrl_default/quantum/led_tables.o
                                                  .build/obj_massdrop_ctrl_default/quantum/color.o
CLK_delay_ms                                      .build/obj_massdrop_ctrl_default/protocol/arm_atsam/clks.o
                                                  .build/obj_massdrop_ctrl_default/protocol/arm_atsam/usb/usb_hub.o
                                                  .build/obj_massdrop_ctrl_default/protocol/arm_atsam/main_arm_atsam.o
                                                  .build/obj_massdrop_ctrl_default/protocol/arm_atsam/i2c_master.o
                                                  .build/obj_massdrop_ctrl_default/quantum/action_macro.o
                                                  .build/obj_massdrop_ctrl_default/quantum/action.o
                                                  .build/obj_massdrop_ctrl_default/quantum/send_string.o
                                                  .build/obj_massdrop_ctrl_default/quantum/quantum.o
CLK_delay_us                                      .build/obj_massdrop_ctrl_default/protocol/arm_atsam/clks.o
                                                  .build/obj_massdrop_ctrl_default/drivers/usb2422.o
                                                  .build/obj_massdrop_ctrl_default/protocol/arm_atsam/usb/usb_hub.o
                                                  .build/obj_massdrop_ctrl_default/quantum/matrix_common.o
CLK_enable_timebase                               .build/obj_massdrop_ctrl_default/protocol/arm_atsam/clks.o
CLK_init                                          .build/obj_massdrop_ctrl_default/protocol/arm_atsam/clks.o
                                                  .build/obj_massdrop_ctrl_default/protocol/arm_atsam/main_arm_atsam.o
CLK_init_osc                                      .build/obj_massdrop_ctrl_default/protocol/arm_atsam/clks.o
CLK_oscctrl_init                                  .build/obj_massdrop_ctrl_default/protocol/arm_atsam/clks.o
CLK_reset_time                                    .build/obj_massdrop_ctrl_default/protocol/arm_atsam/clks.o
CLK_set_gclk_freq                                 .build/obj_massdrop_ctrl_default/protocol/arm_atsam/clks.o
CLK_set_i2c0_freq                                 .build/obj_massdrop_ctrl_default/protocol/arm_atsam/clks.o
                                                  .build/obj_massdrop_ctrl_default/protocol/arm_atsam/i2c_master.o
CLK_set_i2c1_freq                                 .build/obj_massdrop_ctrl_default/protocol/arm_atsam/clks.o
                                                  .build/obj_massdrop_ctrl_default/protocol/arm_atsam/i2c_master.o
CLK_set_spi_freq                                  .build/obj_massdrop_ctrl_default/protocol/arm_atsam/clks.o
                                                  .build/obj_massdrop_ctrl_default/protocol/arm_atsam/spi_master.o
CYCLE_ALL                                         .build/obj_massdrop_ctrl_default/quantum/rgb_matrix/rgb_matrix.o
CYCLE_LEFT_RIGHT                                  .build/obj_massdrop_ctrl_default/quantum/rgb_matrix/rgb_matrix.o
CYCLE_OUT_IN                                      .build/obj_massdrop_ctrl_default/quantum/rgb_matrix/rgb_matrix.o
CYCLE_OUT_IN_DUAL                                 .build/obj_massdrop_ctrl_default/quantum/rgb_matrix/rgb_matrix.o
CYCLE_PINWHEEL                                    .build/obj_massdrop_ctrl_default/quantum/rgb_matrix/rgb_matrix.o
CYCLE_SPIRAL                                      .build/obj_massdrop_ctrl_default/quantum/rgb_matrix/rgb_matrix.o
CYCLE_UP_DOWN                                     .build/obj_massdrop_ctrl_default/quantum/rgb_matrix/rgb_matrix.o
DAC_0_Handler                                     .build/obj_massdrop_ctrl_default/protocol/arm_atsam/startup.o
DAC_1_Handler                                     .build/obj_massdrop_ctrl_default/protocol/arm_atsam/startup.o
DAC_2_Handler                                     .build/obj_massdrop_ctrl_default/protocol/arm_atsam/startup.o
DAC_3_Handler                                     .build/obj_massdrop_ctrl_default/protocol/arm_atsam/startup.o
DAC_4_Handler                                     .build/obj_massdrop_ctrl_default/protocol/arm_atsam/startup.o
DMAC_0_Handler                                    .build/obj_massdrop_ctrl_default/protocol/arm_atsam/md_rgb_matrix.o
DMAC_1_Handler                                    .build/obj_massdrop_ctrl_default/protocol/arm_atsam/startup.o
DMAC_2_Handler                                    .build/obj_massdrop_ctrl_default/protocol/arm_atsam/startup.o
DMAC_3_Handler                                    .build/obj_massdrop_ctrl_default/protocol/arm_atsam/startup.o
DMAC_4_Handler                                    .build/obj_massdrop_ctrl_default/protocol/arm_atsam/startup.o
DUAL_BEACON                                       .build/obj_massdrop_ctrl_default/quantum/rgb_matrix/rgb_matrix.o
DebugMon_Handler                                  .build/obj_massdrop_ctrl_default/protocol/arm_atsam/startup.o
Dummy_Handler                                     .build/obj_massdrop_ctrl_default/protocol/arm_atsam/startup.o
EIC_0_Handler                                     .build/obj_massdrop_ctrl_default/protocol/arm_atsam/startup.o
EIC_10_Handler                                    .build/obj_massdrop_ctrl_default/protocol/arm_atsam/startup.o
EIC_11_Handler                                    .build/obj_massdrop_ctrl_default/protocol/arm_atsam/startup.o
EIC_12_Handler                                    .build/obj_massdrop_ctrl_default/protocol/arm_atsam/startup.o
EIC_13_Handler                                    .build/obj_massdrop_ctrl_default/protocol/arm_atsam/startup.o
EIC_14_Handler                                    .build/obj_massdrop_ctrl_default/protocol/arm_atsam/startup.o
EIC_15_Handler                                    .build/obj_massdrop_ctrl_default/protocol/arm_atsam/startup.o
EIC_1_Handler                                     .build/obj_massdrop_ctrl_default/protocol/arm_atsam/startup.o
EIC_2_Handler                                     .build/obj_massdrop_ctrl_default/protocol/arm_atsam/startup.o
EIC_3_Handler                                     .build/obj_massdrop_ctrl_default/protocol/arm_atsam/startup.o
EIC_4_Handler                                     .build/obj_massdrop_ctrl_default/protocol/arm_atsam/startup.o
EIC_5_Handler                                     .build/obj_massdrop_ctrl_default/protocol/arm_atsam/startup.o
EIC_6_Handler                                     .build/obj_massdrop_ctrl_default/protocol/arm_atsam/startup.o
EIC_7_Handler                                     .build/obj_massdrop_ctrl_default/protocol/arm_atsam/d51_util.o
EIC_8_Handler                                     .build/obj_massdrop_ctrl_default/protocol/arm_atsam/startup.o
EIC_9_Handler                                     .build/obj_massdrop_ctrl_default/protocol/arm_atsam/startup.o
EVSYS_0_Handler                                   .build/obj_massdrop_ctrl_default/protocol/arm_atsam/startup.o
EVSYS_1_Handler                                   .build/obj_massdrop_ctrl_default/protocol/arm_atsam/startup.o
EVSYS_2_Handler                                   .build/obj_massdrop_ctrl_default/protocol/arm_atsam/startup.o
EVSYS_3_Handler                                   .build/obj_massdrop_ctrl_default/protocol/arm_atsam/startup.o
EVSYS_4_Handler                                   .build/obj_massdrop_ctrl_default/protocol/arm_atsam/startup.o
FREQM_Handler                                     .build/obj_massdrop_ctrl_default/protocol/arm_atsam/startup.o
GRADIENT_LEFT_RIGHT                               .build/obj_massdrop_ctrl_default/quantum/rgb_matrix/rgb_matrix.o
GRADIENT_UP_DOWN                                  .build/obj_massdrop_ctrl_default/quantum/rgb_matrix/rgb_matrix.o
HUE_BREATHING                                     .build/obj_massdrop_ctrl_default/quantum/rgb_matrix/rgb_matrix.o
HUE_PENDULUM                                      .build/obj_massdrop_ctrl_default/quantum/rgb_matrix/rgb_matrix.o
HUE_WAVE                                          .build/obj_massdrop_ctrl_default/quantum/rgb_matrix/rgb_matrix.o
HardFault_Handler                                 .build/obj_massdrop_ctrl_default/protocol/arm_atsam/startup.o
I2C3733_Control_Set                               .build/obj_massdrop_ctrl_default/protocol/arm_atsam/i2c_master.o
                                                  .build/obj_massdrop_ctrl_default/protocol/arm_atsam/md_rgb_matrix.o
                                                  .build/obj_massdrop_ctrl_default/platforms/arm_atsam/suspend.o
I2C3733_Init_Control                              .build/obj_massdrop_ctrl_default/protocol/arm_atsam/i2c_master.o
                                                  .build/obj_massdrop_ctrl_default/protocol/arm_atsam/main_arm_atsam.o
I2C3733_Init_Drivers                              .build/obj_massdrop_ctrl_default/protocol/arm_atsam/i2c_master.o
                                                  .build/obj_massdrop_ctrl_default/protocol/arm_atsam/main_arm_atsam.o
I2C_DMAC_LED_Init                                 .build/obj_massdrop_ctrl_default/protocol/arm_atsam/i2c_master.o
                                                  .build/obj_massdrop_ctrl_default/protocol/arm_atsam/main_arm_atsam.o
I2S_Handler                                       .build/obj_massdrop_ctrl_default/protocol/arm_atsam/startup.o
ICM_Handler                                       .build/obj_massdrop_ctrl_default/protocol/arm_atsam/startup.o
JELLYBEAN_RAINDROPS                               .build/obj_massdrop_ctrl_default/quantum/rgb_matrix/rgb_matrix.o
MCLK_Handler                                      .build/obj_massdrop_ctrl_default/protocol/arm_atsam/startup.o
MULTISPLASH                                       .build/obj_massdrop_ctrl_default/quantum/rgb_matrix/rgb_matrix.o
MemManage_Handler                                 .build/obj_massdrop_ctrl_default/protocol/arm_atsam/startup.o
NMI_Handler                                       .build/obj_massdrop_ctrl_default/protocol/arm_atsam/startup.o
NVMCTRL_0_Handler                                 .build/obj_massdrop_ctrl_default/protocol/arm_atsam/startup.o
NVMCTRL_1_Handler                                 .build/obj_massdrop_ctrl_default/protocol/arm_atsam/startup.o
OSC32KCTRL_Handler                                .build/obj_massdrop_ctrl_default/protocol/arm_atsam/startup.o
OSCCTRL_0_Handler                                 .build/obj_massdrop_ctrl_default/protocol/arm_atsam/startup.o
OSCCTRL_1_Handler                                 .build/obj_massdrop_ctrl_default/protocol/arm_atsam/startup.o
OSCCTRL_2_Handler                                 .build/obj_massdrop_ctrl_default/protocol/arm_atsam/startup.o
OSCCTRL_3_Handler                                 .build/obj_massdrop_ctrl_default/protocol/arm_atsam/startup.o
OSCCTRL_4_Handler                                 .build/obj_massdrop_ctrl_default/protocol/arm_atsam/startup.o
PAC_Handler                                       .build/obj_massdrop_ctrl_default/protocol/arm_atsam/startup.o
PCC_Handler                                       .build/obj_massdrop_ctrl_default/protocol/arm_atsam/startup.o
PDEC_0_Handler                                    .build/obj_massdrop_ctrl_default/protocol/arm_atsam/startup.o
PDEC_1_Handler                                    .build/obj_massdrop_ctrl_default/protocol/arm_atsam/startup.o
PDEC_2_Handler                                    .build/obj_massdrop_ctrl_default/protocol/arm_atsam/startup.o
PM_Handler                                        .build/obj_massdrop_ctrl_default/protocol/arm_atsam/startup.o
PUKCC_Handler                                     .build/obj_massdrop_ctrl_default/protocol/arm_atsam/startup.o
PendSV_Handler                                    .build/obj_massdrop_ctrl_default/protocol/arm_atsam/startup.o
QSPI_Handler                                      .build/obj_massdrop_ctrl_default/protocol/arm_atsam/startup.o
RAINBOW_BEACON                                    .build/obj_massdrop_ctrl_default/quantum/rgb_matrix/rgb_matrix.o
RAINBOW_MOVING_CHEVRON                            .build/obj_massdrop_ctrl_default/quantum/rgb_matrix/rgb_matrix.o
RAINBOW_PINWHEELS                                 .build/obj_massdrop_ctrl_default/quantum/rgb_matrix/rgb_matrix.o
RAINDROPS                                         .build/obj_massdrop_ctrl_default/quantum/rgb_matrix/rgb_matrix.o
RAMECC_Handler                                    .build/obj_massdrop_ctrl_default/protocol/arm_atsam/startup.o
RTC_Handler                                       .build/obj_massdrop_ctrl_default/protocol/arm_atsam/startup.o
Reset_Handler                                     .build/obj_massdrop_ctrl_default/protocol/arm_atsam/startup.o
SDHC0_Handler                                     .build/obj_massdrop_ctrl_default/protocol/arm_atsam/startup.o
SERCOM0_0_Handler                                 .build/obj_massdrop_ctrl_default/protocol/arm_atsam/startup.o
SERCOM0_1_Handler                                 .build/obj_massdrop_ctrl_default/protocol/arm_atsam/startup.o
SERCOM0_2_Handler                                 .build/obj_massdrop_ctrl_default/protocol/arm_atsam/startup.o
SERCOM0_3_Handler                                 .build/obj_massdrop_ctrl_default/protocol/arm_atsam/startup.o
SERCOM1_0_Handler                                 .build/obj_massdrop_ctrl_default/protocol/arm_atsam/md_rgb_matrix.o
SERCOM1_1_Handler                                 .build/obj_massdrop_ctrl_default/protocol/arm_atsam/startup.o
SERCOM1_2_Handler                                 .build/obj_massdrop_ctrl_default/protocol/arm_atsam/startup.o
SERCOM1_3_Handler                                 .build/obj_massdrop_ctrl_default/protocol/arm_atsam/startup.o
SERCOM2_0_Handler                                 .build/obj_massdrop_ctrl_default/protocol/arm_atsam/startup.o
SERCOM2_1_Handler                                 .build/obj_massdrop_ctrl_default/protocol/arm_atsam/startup.o
SERCOM2_2_Handler                                 .build/obj_massdrop_ctrl_default/protocol/arm_atsam/startup.o
SERCOM2_3_Handler                                 .build/obj_massdrop_ctrl_default/protocol/arm_atsam/startup.o
SERCOM3_0_Handler                                 .build/obj_massdrop_ctrl_default/protocol/arm_atsam/startup.o
SERCOM3_1_Handler                                 .build/obj_massdrop_ctrl_default/protocol/arm_atsam/startup.o
SERCOM3_2_Handler                                 .build/obj_massdrop_ctrl_default/protocol/arm_atsam/startup.o
SERCOM3_3_Handler                                 .build/obj_massdrop_ctrl_default/protocol/arm_atsam/startup.o
SERCOM4_0_Handler                                 .build/obj_massdrop_ctrl_default/protocol/arm_atsam/startup.o
SERCOM4_1_Handler                                 .build/obj_massdrop_ctrl_default/protocol/arm_atsam/startup.o
SERCOM4_2_Handler                                 .build/obj_massdrop_ctrl_default/protocol/arm_atsam/startup.o
SERCOM4_3_Handler                                 .build/obj_massdrop_ctrl_default/protocol/arm_atsam/startup.o
SERCOM5_0_Handler                                 .build/obj_massdrop_ctrl_default/protocol/arm_atsam/startup.o
SERCOM5_1_Handler                                 .build/obj_massdrop_ctrl_default/protocol/arm_atsam/startup.o
SERCOM5_2_Handler                                 .build/obj_massdrop_ctrl_default/protocol/arm_atsam/startup.o
SERCOM5_3_Handler                                 .build/obj_massdrop_ctrl_default/protocol/arm_atsam/startup.o
SOLID_COLOR                                       .build/obj_massdrop_ctrl_default/quantum/rgb_matrix/rgb_matrix.o
SOLID_MULTISPLASH                                 .build/obj_massdrop_ctrl_default/quantum/rgb_matrix/rgb_matrix.o
SOLID_REACTIVE                                    .build/obj_massdrop_ctrl_default/quantum/rgb_matrix/rgb_matrix.o
SOLID_REACTIVE_CROSS                              .build/obj_massdrop_ctrl_default/quantum/rgb_matrix/rgb_matrix.o
SOLID_REACTIVE_MULTICROSS                         .build/obj_massdrop_ctrl_default/quantum/rgb_matrix/rgb_matrix.o
SOLID_REACTIVE_MULTINEXUS                         .build/obj_massdrop_ctrl_default/quantum/rgb_matrix/rgb_matrix.o
SOLID_REACTIVE_MULTIWIDE                          .build/obj_massdrop_ctrl_default/quantum/rgb_matrix/rgb_matrix.o
SOLID_REACTIVE_NEXUS                              .build/obj_massdrop_ctrl_default/quantum/rgb_matrix/rgb_matrix.o
SOLID_REACTIVE_SIMPLE                             .build/obj_massdrop_ctrl_default/quantum/rgb_matrix/rgb_matrix.o
SOLID_REACTIVE_WIDE                               .build/obj_massdrop_ctrl_default/quantum/rgb_matrix/rgb_matrix.o
SOLID_SPLASH                                      .build/obj_massdrop_ctrl_default/quantum/rgb_matrix/rgb_matrix.o
SOLID_SPLASH_math                                 .build/obj_massdrop_ctrl_default/quantum/rgb_matrix/rgb_matrix.o
SPLASH                                            .build/obj_massdrop_ctrl_default/quantum/rgb_matrix/rgb_matrix.o
SPLASH_math                                       .build/obj_massdrop_ctrl_default/quantum/rgb_matrix/rgb_matrix.o
SR_EXP_Init                                       .build/obj_massdrop_ctrl_default/protocol/arm_atsam/shift_register.o
                                                  .build/obj_massdrop_ctrl_default/protocol/arm_atsam/main_arm_atsam.o
SR_EXP_WriteData                                  .build/obj_massdrop_ctrl_default/protocol/arm_atsam/shift_register.o
                                                  .build/obj_massdrop_ctrl_default/protocol/arm_atsam/usb/usb_hub.o
                                                  .build/obj_massdrop_ctrl_default/protocol/arm_atsam/i2c_master.o
SUPC_0_Handler                                    .build/obj_massdrop_ctrl_default/protocol/arm_atsam/startup.o
SUPC_1_Handler                                    .build/obj_massdrop_ctrl_default/protocol/arm_atsam/startup.o
SVC_Handler                                       .build/obj_massdrop_ctrl_default/protocol/arm_atsam/startup.o
SmartEEPROM8                                      .build/obj_massdrop_ctrl_default/platforms/arm_atsam/eeprom.o
SysTick_Handler                                   .build/obj_massdrop_ctrl_default/protocol/arm_atsam/startup.o
TAL_0_Handler                                     .build/obj_massdrop_ctrl_default/protocol/arm_atsam/startup.o
TAL_1_Handler                                     .build/obj_massdrop_ctrl_default/protocol/arm_atsam/startup.o
TC0_Handler                                       .build/obj_massdrop_ctrl_default/protocol/arm_atsam/startup.o
TC1_Handler                                       .build/obj_massdrop_ctrl_default/protocol/arm_atsam/startup.o
TC2_Handler                                       .build/obj_massdrop_ctrl_default/protocol/arm_atsam/startup.o
TC3_Handler                                       .build/obj_massdrop_ctrl_default/protocol/arm_atsam/startup.o
TC4_Handler                                       .build/obj_massdrop_ctrl_default/protocol/arm_atsam/clks.o
TC5_Handler                                       .build/obj_massdrop_ctrl_default/protocol/arm_atsam/startup.o
TCC0_0_Handler                                    .build/obj_massdrop_ctrl_default/protocol/arm_atsam/startup.o
TCC0_1_Handler                                    .build/obj_massdrop_ctrl_default/protocol/arm_atsam/startup.o
TCC0_2_Handler                                    .build/obj_massdrop_ctrl_default/protocol/arm_atsam/startup.o
TCC0_3_Handler                                    .build/obj_massdrop_ctrl_default/protocol/arm_atsam/startup.o
TCC0_4_Handler                                    .build/obj_massdrop_ctrl_default/protocol/arm_atsam/startup.o
TCC0_5_Handler                                    .build/obj_massdrop_ctrl_default/protocol/arm_atsam/startup.o
TCC0_6_Handler                                    .build/obj_massdrop_ctrl_default/protocol/arm_atsam/startup.o
TCC1_0_Handler                                    .build/obj_massdrop_ctrl_default/protocol/arm_atsam/startup.o
TCC1_1_Handler                                    .build/obj_massdrop_ctrl_default/protocol/arm_atsam/startup.o
TCC1_2_Handler                                    .build/obj_massdrop_ctrl_default/protocol/arm_atsam/startup.o
TCC1_3_Handler                                    .build/obj_massdrop_ctrl_default/protocol/arm_atsam/startup.o
TCC1_4_Handler                                    .build/obj_massdrop_ctrl_default/protocol/arm_atsam/startup.o
TCC2_0_Handler                                    .build/obj_massdrop_ctrl_default/protocol/arm_atsam/startup.o
TCC2_1_Handler                                    .build/obj_massdrop_ctrl_default/protocol/arm_atsam/startup.o
TCC2_2_Handler                                    .build/obj_massdrop_ctrl_default/protocol/arm_atsam/startup.o
TCC2_3_Handler                                    .build/obj_massdrop_ctrl_default/protocol/arm_atsam/startup.o
TCC3_0_Handler                                    .build/obj_massdrop_ctrl_default/protocol/arm_atsam/startup.o
TCC3_1_Handler                                    .build/obj_massdrop_ctrl_default/protocol/arm_atsam/startup.o
TCC3_2_Handler                                    .build/obj_massdrop_ctrl_default/protocol/arm_atsam/startup.o
TCC4_0_Handler                                    .build/obj_massdrop_ctrl_default/protocol/arm_atsam/startup.o
TCC4_1_Handler                                    .build/obj_massdrop_ctrl_default/protocol/arm_atsam/startup.o
TCC4_2_Handler                                    .build/obj_massdrop_ctrl_default/protocol/arm_atsam/startup.o
TRNG_Handler                                      .build/obj_massdrop_ctrl_default/protocol/arm_atsam/startup.o
USB2422_active                                    .build/obj_massdrop_ctrl_default/drivers/usb2422.o
                                                  .build/obj_massdrop_ctrl_default/protocol/arm_atsam/usb/usb_hub.o
USB2422_configure                                 .build/obj_massdrop_ctrl_default/drivers/usb2422.o
                                                  .build/obj_massdrop_ctrl_default/protocol/arm_atsam/usb/usb_hub.o
USB2422_init                                      .build/obj_massdrop_ctrl_default/drivers/usb2422.o
                                                  .build/obj_massdrop_ctrl_default/protocol/arm_atsam/usb/usb_hub.o
USB2422_reset                                     .build/obj_massdrop_ctrl_default/drivers/usb2422.o
USB_0_Handler                                     .build/obj_massdrop_ctrl_default/protocol/arm_atsam/usb/usb.o
                                                  .build/obj_massdrop_ctrl_default/protocol/arm_atsam/startup.o
USB_1_Handler                                     .build/obj_massdrop_ctrl_default/protocol/arm_atsam/usb/usb.o
                                                  .build/obj_massdrop_ctrl_default/protocol/arm_atsam/startup.o
USB_2_Handler                                     .build/obj_massdrop_ctrl_default/protocol/arm_atsam/usb/usb.o
                                                  .build/obj_massdrop_ctrl_default/protocol/arm_atsam/startup.o
USB_3_Handler                                     .build/obj_massdrop_ctrl_default/protocol/arm_atsam/usb/usb.o
                                                  .build/obj_massdrop_ctrl_default/protocol/arm_atsam/startup.o
USB_ExtraSetState                                 .build/obj_massdrop_ctrl_default/protocol/arm_atsam/usb/usb_hub.o
                                                  .build/obj_massdrop_ctrl_default/protocol/arm_atsam/md_rgb_matrix.o
USB_HandleExtraDevice                             .build/obj_massdrop_ctrl_default/protocol/arm_atsam/usb/usb_hub.o
                                                  .build/obj_massdrop_ctrl_default/protocol/arm_atsam/main_arm_atsam.o
USB_Hub_Port_Detect_Init                          .build/obj_massdrop_ctrl_default/protocol/arm_atsam/usb/usb_hub.o
                                                  .build/obj_massdrop_ctrl_default/protocol/arm_atsam/main_arm_atsam.o
USB_Hub_init                                      .build/obj_massdrop_ctrl_default/protocol/arm_atsam/usb/usb_hub.o
                                                  .build/obj_massdrop_ctrl_default/protocol/arm_atsam/main_arm_atsam.o
USB_active                                        .build/obj_massdrop_ctrl_default/protocol/arm_atsam/usb/usb_hub.o
USB_configure                                     .build/obj_massdrop_ctrl_default/protocol/arm_atsam/usb/usb_hub.o
USB_reset                                         .build/obj_massdrop_ctrl_default/protocol/arm_atsam/usb/usb_hub.o
USB_set_host_by_voltage                           .build/obj_massdrop_ctrl_default/protocol/arm_atsam/usb/usb_hub.o
UTIL_itoa                                         .build/obj_massdrop_ctrl_default/protocol/arm_atsam/usb/usb_util.o
UTIL_ltoa                                         .build/obj_massdrop_ctrl_default/protocol/arm_atsam/usb/usb_util.o
UTIL_ltoa_radix                                   .build/obj_massdrop_ctrl_default/protocol/arm_atsam/usb/usb_util.o
UTIL_utoa                                         .build/obj_massdrop_ctrl_default/protocol/arm_atsam/usb/usb_util.o
UsageFault_Handler                                .build/obj_massdrop_ctrl_default/protocol/arm_atsam/startup.o
WDT_Handler                                       .build/obj_massdrop_ctrl_default/protocol/arm_atsam/startup.o
__adddf3                                          /opt/homebrew/Cellar/arm-gcc-bin@8/8-2019-q3-update_1/bin/../lib/gcc/arm-none-eabi/8.3.1/thumb/v7e-m+fp/hard/libgcc.a(_arm_addsubdf3.o)
__aeabi_d2uiz                                     /opt/homebrew/Cellar/arm-gcc-bin@8/8-2019-q3-update_1/bin/../lib/gcc/arm-none-eabi/8.3.1/thumb/v7e-m+fp/hard/libgcc.a(_arm_fixunsdfsi.o)
                                                  .build/obj_massdrop_ctrl_default/protocol/arm_atsam/usb/usb_hub.o
                                                  .build/obj_massdrop_ctrl_default/protocol/arm_atsam/main_arm_atsam.o
__aeabi_dadd                                      /opt/homebrew/Cellar/arm-gcc-bin@8/8-2019-q3-update_1/bin/../lib/gcc/arm-none-eabi/8.3.1/thumb/v7e-m+fp/hard/libgcc.a(_arm_addsubdf3.o)
                                                  .build/obj_massdrop_ctrl_default/protocol/arm_atsam/usb/usb_hub.o
                                                  .build/obj_massdrop_ctrl_default/protocol/arm_atsam/main_arm_atsam.o
__aeabi_ddiv                                      /opt/homebrew/Cellar/arm-gcc-bin@8/8-2019-q3-update_1/bin/../lib/gcc/arm-none-eabi/8.3.1/thumb/v7e-m+fp/hard/libgcc.a(_arm_muldivdf3.o)
__aeabi_dmul                                      /opt/homebrew/Cellar/arm-gcc-bin@8/8-2019-q3-update_1/bin/../lib/gcc/arm-none-eabi/8.3.1/thumb/v7e-m+fp/hard/libgcc.a(_arm_muldivdf3.o)
                                                  .build/obj_massdrop_ctrl_default/protocol/arm_atsam/usb/usb_hub.o
                                                  .build/obj_massdrop_ctrl_default/protocol/arm_atsam/main_arm_atsam.o
__aeabi_drsub                                     /opt/homebrew/Cellar/arm-gcc-bin@8/8-2019-q3-update_1/bin/../lib/gcc/arm-none-eabi/8.3.1/thumb/v7e-m+fp/hard/libgcc.a(_arm_addsubdf3.o)
__aeabi_dsub                                      /opt/homebrew/Cellar/arm-gcc-bin@8/8-2019-q3-update_1/bin/../lib/gcc/arm-none-eabi/8.3.1/thumb/v7e-m+fp/hard/libgcc.a(_arm_addsubdf3.o)
__aeabi_f2d                                       /opt/homebrew/Cellar/arm-gcc-bin@8/8-2019-q3-update_1/bin/../lib/gcc/arm-none-eabi/8.3.1/thumb/v7e-m+fp/hard/libgcc.a(_arm_addsubdf3.o)
__aeabi_i2d                                       /opt/homebrew/Cellar/arm-gcc-bin@8/8-2019-q3-update_1/bin/../lib/gcc/arm-none-eabi/8.3.1/thumb/v7e-m+fp/hard/libgcc.a(_arm_addsubdf3.o)
                                                  .build/obj_massdrop_ctrl_default/protocol/arm_atsam/usb/usb_hub.o
                                                  .build/obj_massdrop_ctrl_default/protocol/arm_atsam/main_arm_atsam.o
__aeabi_idiv0                                     /opt/homebrew/Cellar/arm-gcc-bin@8/8-2019-q3-update_1/bin/../lib/gcc/arm-none-eabi/8.3.1/thumb/v7e-m+fp/hard/libgcc.a(_dvmd_tls.o)
__aeabi_l2d                                       /opt/homebrew/Cellar/arm-gcc-bin@8/8-2019-q3-update_1/bin/../lib/gcc/arm-none-eabi/8.3.1/thumb/v7e-m+fp/hard/libgcc.a(_arm_addsubdf3.o)
__aeabi_ldiv0                                     /opt/homebrew/Cellar/arm-gcc-bin@8/8-2019-q3-update_1/bin/../lib/gcc/arm-none-eabi/8.3.1/thumb/v7e-m+fp/hard/libgcc.a(_dvmd_tls.o)
                                                  /opt/homebrew/Cellar/arm-gcc-bin@8/8-2019-q3-update_1/bin/../lib/gcc/arm-none-eabi/8.3.1/thumb/v7e-m+fp/hard/libgcc.a(_aeabi_uldivmod.o)
                                                  /opt/homebrew/Cellar/arm-gcc-bin@8/8-2019-q3-update_1/bin/../lib/gcc/arm-none-eabi/8.3.1/thumb/v7e-m+fp/hard/libgcc.a(_aeabi_ldivmod.o)
__aeabi_ldivmod                                   /opt/homebrew/Cellar/arm-gcc-bin@8/8-2019-q3-update_1/bin/../lib/gcc/arm-none-eabi/8.3.1/thumb/v7e-m+fp/hard/libgcc.a(_aeabi_ldivmod.o)
                                                  .build/obj_massdrop_ctrl_default/protocol/arm_atsam/usb/usb_util.o
__aeabi_ui2d                                      /opt/homebrew/Cellar/arm-gcc-bin@8/8-2019-q3-update_1/bin/../lib/gcc/arm-none-eabi/8.3.1/thumb/v7e-m+fp/hard/libgcc.a(_arm_addsubdf3.o)
__aeabi_ul2d                                      /opt/homebrew/Cellar/arm-gcc-bin@8/8-2019-q3-update_1/bin/../lib/gcc/arm-none-eabi/8.3.1/thumb/v7e-m+fp/hard/libgcc.a(_arm_addsubdf3.o)
__aeabi_uldivmod                                  /opt/homebrew/Cellar/arm-gcc-bin@8/8-2019-q3-update_1/bin/../lib/gcc/arm-none-eabi/8.3.1/thumb/v7e-m+fp/hard/libgcc.a(_aeabi_uldivmod.o)
                                                  .build/obj_massdrop_ctrl_default/protocol/arm_atsam/usb/usb_hub.o
__atexit_recursive_mutex                          /opt/homebrew/Cellar/arm-gcc-bin@8/8-2019-q3-update_1/bin/../lib/gcc/arm-none-eabi/8.3.1/../../../../arm-none-eabi/lib/thumb/v7e-m+fp/hard/libg.a(lib_a-__call_atexit.o)
                                                  /opt/homebrew/Cellar/arm-gcc-bin@8/8-2019-q3-update_1/bin/../lib/gcc/arm-none-eabi/8.3.1/../../../../arm-none-eabi/lib/thumb/v7e-m+fp/hard/libg.a(lib_a-__atexit.o)
__bss_end__                                       /opt/homebrew/Cellar/arm-gcc-bin@8/8-2019-q3-update_1/bin/../lib/gcc/arm-none-eabi/8.3.1/../../../../arm-none-eabi/lib/thumb/v7e-m+fp/hard/rdimon-crt0.o
__bss_start__                                     /opt/homebrew/Cellar/arm-gcc-bin@8/8-2019-q3-update_1/bin/../lib/gcc/arm-none-eabi/8.3.1/../../../../arm-none-eabi/lib/thumb/v7e-m+fp/hard/rdimon-crt0.o
__call_exitprocs                                  /opt/homebrew/Cellar/arm-gcc-bin@8/8-2019-q3-update_1/bin/../lib/gcc/arm-none-eabi/8.3.1/../../../../arm-none-eabi/lib/thumb/v7e-m+fp/hard/libg.a(lib_a-__call_atexit.o)
                                                  /opt/homebrew/Cellar/arm-gcc-bin@8/8-2019-q3-update_1/bin/../lib/gcc/arm-none-eabi/8.3.1/../../../../arm-none-eabi/lib/thumb/v7e-m+fp/hard/libg.a(lib_a-exit.o)
__deregister_frame_info                           /opt/homebrew/Cellar/arm-gcc-bin@8/8-2019-q3-update_1/bin/../lib/gcc/arm-none-eabi/8.3.1/thumb/v7e-m+fp/hard/crtbegin.o
__divdf3                                          /opt/homebrew/Cellar/arm-gcc-bin@8/8-2019-q3-update_1/bin/../lib/gcc/arm-none-eabi/8.3.1/thumb/v7e-m+fp/hard/libgcc.a(_arm_muldivdf3.o)
__dso_handle                                      /opt/homebrew/Cellar/arm-gcc-bin@8/8-2019-q3-update_1/bin/../lib/gcc/arm-none-eabi/8.3.1/thumb/v7e-m+fp/hard/crtbegin.o
__end__                                           /opt/homebrew/Cellar/arm-gcc-bin@8/8-2019-q3-update_1/bin/../lib/gcc/arm-none-eabi/8.3.1/../../../../arm-none-eabi/lib/thumb/v7e-m+fp/hard/rdimon-crt0.o
__errno                                           /opt/homebrew/Cellar/arm-gcc-bin@8/8-2019-q3-update_1/bin/../lib/gcc/arm-none-eabi/8.3.1/../../../../arm-none-eabi/lib/thumb/v7e-m+fp/hard/libc.a(lib_a-errno.o)
                                                  /opt/homebrew/Cellar/arm-gcc-bin@8/8-2019-q3-update_1/bin/../lib/gcc/arm-none-eabi/8.3.1/../../../../arm-none-eabi/lib/thumb/v7e-m+fp/hard/librdimon.a(rdimon-syscalls.o)
__extendsfdf2                                     /opt/homebrew/Cellar/arm-gcc-bin@8/8-2019-q3-update_1/bin/../lib/gcc/arm-none-eabi/8.3.1/thumb/v7e-m+fp/hard/libgcc.a(_arm_addsubdf3.o)
__fini_array_end                                  /opt/homebrew/Cellar/arm-gcc-bin@8/8-2019-q3-update_1/bin/../lib/gcc/arm-none-eabi/8.3.1/../../../../arm-none-eabi/lib/thumb/v7e-m+fp/hard/libg.a(lib_a-fini.o)
__fini_array_start                                /opt/homebrew/Cellar/arm-gcc-bin@8/8-2019-q3-update_1/bin/../lib/gcc/arm-none-eabi/8.3.1/../../../../arm-none-eabi/lib/thumb/v7e-m+fp/hard/libg.a(lib_a-fini.o)
__fixunsdfsi                                      /opt/homebrew/Cellar/arm-gcc-bin@8/8-2019-q3-update_1/bin/../lib/gcc/arm-none-eabi/8.3.1/thumb/v7e-m+fp/hard/libgcc.a(_arm_fixunsdfsi.o)
__floatdidf                                       /opt/homebrew/Cellar/arm-gcc-bin@8/8-2019-q3-update_1/bin/../lib/gcc/arm-none-eabi/8.3.1/thumb/v7e-m+fp/hard/libgcc.a(_arm_addsubdf3.o)
__floatsidf                                       /opt/homebrew/Cellar/arm-gcc-bin@8/8-2019-q3-update_1/bin/../lib/gcc/arm-none-eabi/8.3.1/thumb/v7e-m+fp/hard/libgcc.a(_arm_addsubdf3.o)
__floatundidf                                     /opt/homebrew/Cellar/arm-gcc-bin@8/8-2019-q3-update_1/bin/../lib/gcc/arm-none-eabi/8.3.1/thumb/v7e-m+fp/hard/libgcc.a(_arm_addsubdf3.o)
__floatunsidf                                     /opt/homebrew/Cellar/arm-gcc-bin@8/8-2019-q3-update_1/bin/../lib/gcc/arm-none-eabi/8.3.1/thumb/v7e-m+fp/hard/libgcc.a(_arm_addsubdf3.o)
__fp_lock_all                                     /opt/homebrew/Cellar/arm-gcc-bin@8/8-2019-q3-update_1/bin/../lib/gcc/arm-none-eabi/8.3.1/../../../../arm-none-eabi/lib/thumb/v7e-m+fp/hard/libc.a(lib_a-findfp.o)
__fp_unlock_all                                   /opt/homebrew/Cellar/arm-gcc-bin@8/8-2019-q3-update_1/bin/../lib/gcc/arm-none-eabi/8.3.1/../../../../arm-none-eabi/lib/thumb/v7e-m+fp/hard/libc.a(lib_a-findfp.o)
__heap_limit                                      /opt/homebrew/Cellar/arm-gcc-bin@8/8-2019-q3-update_1/bin/../lib/gcc/arm-none-eabi/8.3.1/../../../../arm-none-eabi/lib/thumb/v7e-m+fp/hard/librdimon.a(rdimon-syscalls.o)
                                                  /opt/homebrew/Cellar/arm-gcc-bin@8/8-2019-q3-update_1/bin/../lib/gcc/arm-none-eabi/8.3.1/../../../../arm-none-eabi/lib/thumb/v7e-m+fp/hard/rdimon-crt0.o
__init_array_end                                  /opt/homebrew/Cellar/arm-gcc-bin@8/8-2019-q3-update_1/bin/../lib/gcc/arm-none-eabi/8.3.1/../../../../arm-none-eabi/lib/thumb/v7e-m+fp/hard/libg.a(lib_a-init.o)
__init_array_start                                /opt/homebrew/Cellar/arm-gcc-bin@8/8-2019-q3-update_1/bin/../lib/gcc/arm-none-eabi/8.3.1/../../../../arm-none-eabi/lib/thumb/v7e-m+fp/hard/libg.a(lib_a-init.o)
__libc_fini                                       /opt/homebrew/Cellar/arm-gcc-bin@8/8-2019-q3-update_1/bin/../lib/gcc/arm-none-eabi/8.3.1/../../../../arm-none-eabi/lib/thumb/v7e-m+fp/hard/libg.a(lib_a-__call_atexit.o)
__libc_fini_array                                 /opt/homebrew/Cellar/arm-gcc-bin@8/8-2019-q3-update_1/bin/../lib/gcc/arm-none-eabi/8.3.1/../../../../arm-none-eabi/lib/thumb/v7e-m+fp/hard/libg.a(lib_a-fini.o)
                                                  /opt/homebrew/Cellar/arm-gcc-bin@8/8-2019-q3-update_1/bin/../lib/gcc/arm-none-eabi/8.3.1/../../../../arm-none-eabi/lib/thumb/v7e-m+fp/hard/libg.a(lib_a-__call_atexit.o)
                                                  /opt/homebrew/Cellar/arm-gcc-bin@8/8-2019-q3-update_1/bin/../lib/gcc/arm-none-eabi/8.3.1/../../../../arm-none-eabi/lib/thumb/v7e-m+fp/hard/rdimon-crt0.o
__libc_init_array                                 /opt/homebrew/Cellar/arm-gcc-bin@8/8-2019-q3-update_1/bin/../lib/gcc/arm-none-eabi/8.3.1/../../../../arm-none-eabi/lib/thumb/v7e-m+fp/hard/libg.a(lib_a-init.o)
                                                  .build/obj_massdrop_ctrl_default/protocol/arm_atsam/startup.o
                                                  /opt/homebrew/Cellar/arm-gcc-bin@8/8-2019-q3-update_1/bin/../lib/gcc/arm-none-eabi/8.3.1/../../../../arm-none-eabi/lib/thumb/v7e-m+fp/hard/rdimon-crt0.o
__lock___arc4random_mutex                         /opt/homebrew/Cellar/arm-gcc-bin@8/8-2019-q3-update_1/bin/../lib/gcc/arm-none-eabi/8.3.1/../../../../arm-none-eabi/lib/thumb/v7e-m+fp/hard/libg.a(lib_a-lock.o)
__lock___at_quick_exit_mutex                      /opt/homebrew/Cellar/arm-gcc-bin@8/8-2019-q3-update_1/bin/../lib/gcc/arm-none-eabi/8.3.1/../../../../arm-none-eabi/lib/thumb/v7e-m+fp/hard/libg.a(lib_a-lock.o)
__lock___atexit_recursive_mutex                   /opt/homebrew/Cellar/arm-gcc-bin@8/8-2019-q3-update_1/bin/../lib/gcc/arm-none-eabi/8.3.1/../../../../arm-none-eabi/lib/thumb/v7e-m+fp/hard/libg.a(lib_a-lock.o)
                                                  /opt/homebrew/Cellar/arm-gcc-bin@8/8-2019-q3-update_1/bin/../lib/gcc/arm-none-eabi/8.3.1/../../../../arm-none-eabi/lib/thumb/v7e-m+fp/hard/libg.a(lib_a-__call_atexit.o)
__lock___dd_hash_mutex                            /opt/homebrew/Cellar/arm-gcc-bin@8/8-2019-q3-update_1/bin/../lib/gcc/arm-none-eabi/8.3.1/../../../../arm-none-eabi/lib/thumb/v7e-m+fp/hard/libg.a(lib_a-lock.o)
__lock___env_recursive_mutex                      /opt/homebrew/Cellar/arm-gcc-bin@8/8-2019-q3-update_1/bin/../lib/gcc/arm-none-eabi/8.3.1/../../../../arm-none-eabi/lib/thumb/v7e-m+fp/hard/libg.a(lib_a-lock.o)
__lock___malloc_recursive_mutex                   /opt/homebrew/Cellar/arm-gcc-bin@8/8-2019-q3-update_1/bin/../lib/gcc/arm-none-eabi/8.3.1/../../../../arm-none-eabi/lib/thumb/v7e-m+fp/hard/libg.a(lib_a-lock.o)
                                                  /opt/homebrew/Cellar/arm-gcc-bin@8/8-2019-q3-update_1/bin/../lib/gcc/arm-none-eabi/8.3.1/../../../../arm-none-eabi/lib/thumb/v7e-m+fp/hard/libc.a(lib_a-mlock.o)
__lock___sfp_recursive_mutex                      /opt/homebrew/Cellar/arm-gcc-bin@8/8-2019-q3-update_1/bin/../lib/gcc/arm-none-eabi/8.3.1/../../../../arm-none-eabi/lib/thumb/v7e-m+fp/hard/libg.a(lib_a-lock.o)
                                                  /opt/homebrew/Cellar/arm-gcc-bin@8/8-2019-q3-update_1/bin/../lib/gcc/arm-none-eabi/8.3.1/../../../../arm-none-eabi/lib/thumb/v7e-m+fp/hard/libc.a(lib_a-findfp.o)
__lock___sinit_recursive_mutex                    /opt/homebrew/Cellar/arm-gcc-bin@8/8-2019-q3-update_1/bin/../lib/gcc/arm-none-eabi/8.3.1/../../../../arm-none-eabi/lib/thumb/v7e-m+fp/hard/libg.a(lib_a-lock.o)
                                                  /opt/homebrew/Cellar/arm-gcc-bin@8/8-2019-q3-update_1/bin/../lib/gcc/arm-none-eabi/8.3.1/../../../../arm-none-eabi/lib/thumb/v7e-m+fp/hard/libc.a(lib_a-findfp.o)
__lock___tz_mutex                                 /opt/homebrew/Cellar/arm-gcc-bin@8/8-2019-q3-update_1/bin/../lib/gcc/arm-none-eabi/8.3.1/../../../../arm-none-eabi/lib/thumb/v7e-m+fp/hard/libg.a(lib_a-lock.o)
__malloc_av_                                      /opt/homebrew/Cellar/arm-gcc-bin@8/8-2019-q3-update_1/bin/../lib/gcc/arm-none-eabi/8.3.1/../../../../arm-none-eabi/lib/thumb/v7e-m+fp/hard/libc.a(lib_a-mallocr.o)
                                                  /opt/homebrew/Cellar/arm-gcc-bin@8/8-2019-q3-update_1/bin/../lib/gcc/arm-none-eabi/8.3.1/../../../../arm-none-eabi/lib/thumb/v7e-m+fp/hard/libc.a(lib_a-freer.o)
__malloc_current_mallinfo                         /opt/homebrew/Cellar/arm-gcc-bin@8/8-2019-q3-update_1/bin/../lib/gcc/arm-none-eabi/8.3.1/../../../../arm-none-eabi/lib/thumb/v7e-m+fp/hard/libc.a(lib_a-mallocr.o)
                                                  /opt/homebrew/Cellar/arm-gcc-bin@8/8-2019-q3-update_1/bin/../lib/gcc/arm-none-eabi/8.3.1/../../../../arm-none-eabi/lib/thumb/v7e-m+fp/hard/libc.a(lib_a-freer.o)
__malloc_lock                                     /opt/homebrew/Cellar/arm-gcc-bin@8/8-2019-q3-update_1/bin/../lib/gcc/arm-none-eabi/8.3.1/../../../../arm-none-eabi/lib/thumb/v7e-m+fp/hard/libc.a(lib_a-mlock.o)
                                                  /opt/homebrew/Cellar/arm-gcc-bin@8/8-2019-q3-update_1/bin/../lib/gcc/arm-none-eabi/8.3.1/../../../../arm-none-eabi/lib/thumb/v7e-m+fp/hard/libc.a(lib_a-freer.o)
                                                  /opt/homebrew/Cellar/arm-gcc-bin@8/8-2019-q3-update_1/bin/../lib/gcc/arm-none-eabi/8.3.1/../../../../arm-none-eabi/lib/thumb/v7e-m+fp/hard/libc.a(lib_a-mallocr.o)
__malloc_max_sbrked_mem                           /opt/homebrew/Cellar/arm-gcc-bin@8/8-2019-q3-update_1/bin/../lib/gcc/arm-none-eabi/8.3.1/../../../../arm-none-eabi/lib/thumb/v7e-m+fp/hard/libc.a(lib_a-mallocr.o)
__malloc_max_total_mem                            /opt/homebrew/Cellar/arm-gcc-bin@8/8-2019-q3-update_1/bin/../lib/gcc/arm-none-eabi/8.3.1/../../../../arm-none-eabi/lib/thumb/v7e-m+fp/hard/libc.a(lib_a-mallocr.o)
__malloc_sbrk_base                                /opt/homebrew/Cellar/arm-gcc-bin@8/8-2019-q3-update_1/bin/../lib/gcc/arm-none-eabi/8.3.1/../../../../arm-none-eabi/lib/thumb/v7e-m+fp/hard/libc.a(lib_a-mallocr.o)
                                                  /opt/homebrew/Cellar/arm-gcc-bin@8/8-2019-q3-update_1/bin/../lib/gcc/arm-none-eabi/8.3.1/../../../../arm-none-eabi/lib/thumb/v7e-m+fp/hard/libc.a(lib_a-freer.o)
__malloc_top_pad                                  /opt/homebrew/Cellar/arm-gcc-bin@8/8-2019-q3-update_1/bin/../lib/gcc/arm-none-eabi/8.3.1/../../../../arm-none-eabi/lib/thumb/v7e-m+fp/hard/libc.a(lib_a-mallocr.o)
                                                  /opt/homebrew/Cellar/arm-gcc-bin@8/8-2019-q3-update_1/bin/../lib/gcc/arm-none-eabi/8.3.1/../../../../arm-none-eabi/lib/thumb/v7e-m+fp/hard/libc.a(lib_a-freer.o)
__malloc_trim_threshold                           /opt/homebrew/Cellar/arm-gcc-bin@8/8-2019-q3-update_1/bin/../lib/gcc/arm-none-eabi/8.3.1/../../../../arm-none-eabi/lib/thumb/v7e-m+fp/hard/libc.a(lib_a-mallocr.o)
                                                  /opt/homebrew/Cellar/arm-gcc-bin@8/8-2019-q3-update_1/bin/../lib/gcc/arm-none-eabi/8.3.1/../../../../arm-none-eabi/lib/thumb/v7e-m+fp/hard/libc.a(lib_a-freer.o)
__malloc_unlock                                   /opt/homebrew/Cellar/arm-gcc-bin@8/8-2019-q3-update_1/bin/../lib/gcc/arm-none-eabi/8.3.1/../../../../arm-none-eabi/lib/thumb/v7e-m+fp/hard/libc.a(lib_a-mlock.o)
                                                  /opt/homebrew/Cellar/arm-gcc-bin@8/8-2019-q3-update_1/bin/../lib/gcc/arm-none-eabi/8.3.1/../../../../arm-none-eabi/lib/thumb/v7e-m+fp/hard/libc.a(lib_a-freer.o)
                                                  /opt/homebrew/Cellar/arm-gcc-bin@8/8-2019-q3-update_1/bin/../lib/gcc/arm-none-eabi/8.3.1/../../../../arm-none-eabi/lib/thumb/v7e-m+fp/hard/libc.a(lib_a-mallocr.o)
__muldf3                                          /opt/homebrew/Cellar/arm-gcc-bin@8/8-2019-q3-update_1/bin/../lib/gcc/arm-none-eabi/8.3.1/thumb/v7e-m+fp/hard/libgcc.a(_arm_muldivdf3.o)
__preinit_array_end                               /opt/homebrew/Cellar/arm-gcc-bin@8/8-2019-q3-update_1/bin/../lib/gcc/arm-none-eabi/8.3.1/../../../../arm-none-eabi/lib/thumb/v7e-m+fp/hard/libg.a(lib_a-init.o)
__preinit_array_start                             /opt/homebrew/Cellar/arm-gcc-bin@8/8-2019-q3-update_1/bin/../lib/gcc/arm-none-eabi/8.3.1/../../../../arm-none-eabi/lib/thumb/v7e-m+fp/hard/libg.a(lib_a-init.o)
__register_exitproc                               /opt/homebrew/Cellar/arm-gcc-bin@8/8-2019-q3-update_1/bin/../lib/gcc/arm-none-eabi/8.3.1/../../../../arm-none-eabi/lib/thumb/v7e-m+fp/hard/libg.a(lib_a-__atexit.o)
                                                  /opt/homebrew/Cellar/arm-gcc-bin@8/8-2019-q3-update_1/bin/../lib/gcc/arm-none-eabi/8.3.1/../../../../arm-none-eabi/lib/thumb/v7e-m+fp/hard/libg.a(lib_a-atexit.o)
__register_frame_info                             /opt/homebrew/Cellar/arm-gcc-bin@8/8-2019-q3-update_1/bin/../lib/gcc/arm-none-eabi/8.3.1/thumb/v7e-m+fp/hard/crtbegin.o
__retarget_lock_acquire                           /opt/homebrew/Cellar/arm-gcc-bin@8/8-2019-q3-update_1/bin/../lib/gcc/arm-none-eabi/8.3.1/../../../../arm-none-eabi/lib/thumb/v7e-m+fp/hard/libg.a(lib_a-lock.o)
__retarget_lock_acquire_recursive                 /opt/homebrew/Cellar/arm-gcc-bin@8/8-2019-q3-update_1/bin/../lib/gcc/arm-none-eabi/8.3.1/../../../../arm-none-eabi/lib/thumb/v7e-m+fp/hard/libg.a(lib_a-lock.o)
                                                  /opt/homebrew/Cellar/arm-gcc-bin@8/8-2019-q3-update_1/bin/../lib/gcc/arm-none-eabi/8.3.1/../../../../arm-none-eabi/lib/thumb/v7e-m+fp/hard/libc.a(lib_a-fflush.o)
                                                  /opt/homebrew/Cellar/arm-gcc-bin@8/8-2019-q3-update_1/bin/../lib/gcc/arm-none-eabi/8.3.1/../../../../arm-none-eabi/lib/thumb/v7e-m+fp/hard/libc.a(lib_a-fclose.o)
                                                  /opt/homebrew/Cellar/arm-gcc-bin@8/8-2019-q3-update_1/bin/../lib/gcc/arm-none-eabi/8.3.1/../../../../arm-none-eabi/lib/thumb/v7e-m+fp/hard/libc.a(lib_a-mlock.o)
                                                  /opt/homebrew/Cellar/arm-gcc-bin@8/8-2019-q3-update_1/bin/../lib/gcc/arm-none-eabi/8.3.1/../../../../arm-none-eabi/lib/thumb/v7e-m+fp/hard/libc.a(lib_a-findfp.o)
                                                  /opt/homebrew/Cellar/arm-gcc-bin@8/8-2019-q3-update_1/bin/../lib/gcc/arm-none-eabi/8.3.1/../../../../arm-none-eabi/lib/thumb/v7e-m+fp/hard/libg.a(lib_a-__atexit.o)
                                                  /opt/homebrew/Cellar/arm-gcc-bin@8/8-2019-q3-update_1/bin/../lib/gcc/arm-none-eabi/8.3.1/../../../../arm-none-eabi/lib/thumb/v7e-m+fp/hard/libg.a(lib_a-__call_atexit.o)
__retarget_lock_close                             /opt/homebrew/Cellar/arm-gcc-bin@8/8-2019-q3-update_1/bin/../lib/gcc/arm-none-eabi/8.3.1/../../../../arm-none-eabi/lib/thumb/v7e-m+fp/hard/libg.a(lib_a-lock.o)
__retarget_lock_close_recursive                   /opt/homebrew/Cellar/arm-gcc-bin@8/8-2019-q3-update_1/bin/../lib/gcc/arm-none-eabi/8.3.1/../../../../arm-none-eabi/lib/thumb/v7e-m+fp/hard/libg.a(lib_a-lock.o)
                                                  /opt/homebrew/Cellar/arm-gcc-bin@8/8-2019-q3-update_1/bin/../lib/gcc/arm-none-eabi/8.3.1/../../../../arm-none-eabi/lib/thumb/v7e-m+fp/hard/libc.a(lib_a-fclose.o)
__retarget_lock_init                              /opt/homebrew/Cellar/arm-gcc-bin@8/8-2019-q3-update_1/bin/../lib/gcc/arm-none-eabi/8.3.1/../../../../arm-none-eabi/lib/thumb/v7e-m+fp/hard/libg.a(lib_a-lock.o)
__retarget_lock_init_recursive                    /opt/homebrew/Cellar/arm-gcc-bin@8/8-2019-q3-update_1/bin/../lib/gcc/arm-none-eabi/8.3.1/../../../../arm-none-eabi/lib/thumb/v7e-m+fp/hard/libg.a(lib_a-lock.o)
                                                  /opt/homebrew/Cellar/arm-gcc-bin@8/8-2019-q3-update_1/bin/../lib/gcc/arm-none-eabi/8.3.1/../../../../arm-none-eabi/lib/thumb/v7e-m+fp/hard/libc.a(lib_a-findfp.o)
__retarget_lock_release                           /opt/homebrew/Cellar/arm-gcc-bin@8/8-2019-q3-update_1/bin/../lib/gcc/arm-none-eabi/8.3.1/../../../../arm-none-eabi/lib/thumb/v7e-m+fp/hard/libg.a(lib_a-lock.o)
__retarget_lock_release_recursive                 /opt/homebrew/Cellar/arm-gcc-bin@8/8-2019-q3-update_1/bin/../lib/gcc/arm-none-eabi/8.3.1/../../../../arm-none-eabi/lib/thumb/v7e-m+fp/hard/libg.a(lib_a-lock.o)
                                                  /opt/homebrew/Cellar/arm-gcc-bin@8/8-2019-q3-update_1/bin/../lib/gcc/arm-none-eabi/8.3.1/../../../../arm-none-eabi/lib/thumb/v7e-m+fp/hard/libc.a(lib_a-fflush.o)
                                                  /opt/homebrew/Cellar/arm-gcc-bin@8/8-2019-q3-update_1/bin/../lib/gcc/arm-none-eabi/8.3.1/../../../../arm-none-eabi/lib/thumb/v7e-m+fp/hard/libc.a(lib_a-fclose.o)
                                                  /opt/homebrew/Cellar/arm-gcc-bin@8/8-2019-q3-update_1/bin/../lib/gcc/arm-none-eabi/8.3.1/../../../../arm-none-eabi/lib/thumb/v7e-m+fp/hard/libc.a(lib_a-mlock.o)
                                                  /opt/homebrew/Cellar/arm-gcc-bin@8/8-2019-q3-update_1/bin/../lib/gcc/arm-none-eabi/8.3.1/../../../../arm-none-eabi/lib/thumb/v7e-m+fp/hard/libc.a(lib_a-findfp.o)
                                                  /opt/homebrew/Cellar/arm-gcc-bin@8/8-2019-q3-update_1/bin/../lib/gcc/arm-none-eabi/8.3.1/../../../../arm-none-eabi/lib/thumb/v7e-m+fp/hard/libg.a(lib_a-__atexit.o)
                                                  /opt/homebrew/Cellar/arm-gcc-bin@8/8-2019-q3-update_1/bin/../lib/gcc/arm-none-eabi/8.3.1/../../../../arm-none-eabi/lib/thumb/v7e-m+fp/hard/libg.a(lib_a-__call_atexit.o)
__retarget_lock_try_acquire                       /opt/homebrew/Cellar/arm-gcc-bin@8/8-2019-q3-update_1/bin/../lib/gcc/arm-none-eabi/8.3.1/../../../../arm-none-eabi/lib/thumb/v7e-m+fp/hard/libg.a(lib_a-lock.o)
__retarget_lock_try_acquire_recursive             /opt/homebrew/Cellar/arm-gcc-bin@8/8-2019-q3-update_1/bin/../lib/gcc/arm-none-eabi/8.3.1/../../../../arm-none-eabi/lib/thumb/v7e-m+fp/hard/libg.a(lib_a-lock.o)
__sclose                                          /opt/homebrew/Cellar/arm-gcc-bin@8/8-2019-q3-update_1/bin/../lib/gcc/arm-none-eabi/8.3.1/../../../../arm-none-eabi/lib/thumb/v7e-m+fp/hard/libc.a(lib_a-stdio.o)
                                                  /opt/homebrew/Cellar/arm-gcc-bin@8/8-2019-q3-update_1/bin/../lib/gcc/arm-none-eabi/8.3.1/../../../../arm-none-eabi/lib/thumb/v7e-m+fp/hard/libc.a(lib_a-findfp.o)
__seofread                                        /opt/homebrew/Cellar/arm-gcc-bin@8/8-2019-q3-update_1/bin/../lib/gcc/arm-none-eabi/8.3.1/../../../../arm-none-eabi/lib/thumb/v7e-m+fp/hard/libc.a(lib_a-stdio.o)
__sflush_r                                        /opt/homebrew/Cellar/arm-gcc-bin@8/8-2019-q3-update_1/bin/../lib/gcc/arm-none-eabi/8.3.1/../../../../arm-none-eabi/lib/thumb/v7e-m+fp/hard/libc.a(lib_a-fflush.o)
                                                  /opt/homebrew/Cellar/arm-gcc-bin@8/8-2019-q3-update_1/bin/../lib/gcc/arm-none-eabi/8.3.1/../../../../arm-none-eabi/lib/thumb/v7e-m+fp/hard/libc.a(lib_a-fclose.o)
__sfmoreglue                                      /opt/homebrew/Cellar/arm-gcc-bin@8/8-2019-q3-update_1/bin/../lib/gcc/arm-none-eabi/8.3.1/../../../../arm-none-eabi/lib/thumb/v7e-m+fp/hard/libc.a(lib_a-findfp.o)
__sfp                                             /opt/homebrew/Cellar/arm-gcc-bin@8/8-2019-q3-update_1/bin/../lib/gcc/arm-none-eabi/8.3.1/../../../../arm-none-eabi/lib/thumb/v7e-m+fp/hard/libc.a(lib_a-findfp.o)
__sfp_lock_acquire                                /opt/homebrew/Cellar/arm-gcc-bin@8/8-2019-q3-update_1/bin/../lib/gcc/arm-none-eabi/8.3.1/../../../../arm-none-eabi/lib/thumb/v7e-m+fp/hard/libc.a(lib_a-findfp.o)
                                                  /opt/homebrew/Cellar/arm-gcc-bin@8/8-2019-q3-update_1/bin/../lib/gcc/arm-none-eabi/8.3.1/../../../../arm-none-eabi/lib/thumb/v7e-m+fp/hard/libc.a(lib_a-fclose.o)
__sfp_lock_release                                /opt/homebrew/Cellar/arm-gcc-bin@8/8-2019-q3-update_1/bin/../lib/gcc/arm-none-eabi/8.3.1/../../../../arm-none-eabi/lib/thumb/v7e-m+fp/hard/libc.a(lib_a-findfp.o)
                                                  /opt/homebrew/Cellar/arm-gcc-bin@8/8-2019-q3-update_1/bin/../lib/gcc/arm-none-eabi/8.3.1/../../../../arm-none-eabi/lib/thumb/v7e-m+fp/hard/libc.a(lib_a-fclose.o)
__sinit                                           /opt/homebrew/Cellar/arm-gcc-bin@8/8-2019-q3-update_1/bin/../lib/gcc/arm-none-eabi/8.3.1/../../../../arm-none-eabi/lib/thumb/v7e-m+fp/hard/libc.a(lib_a-findfp.o)
                                                  /opt/homebrew/Cellar/arm-gcc-bin@8/8-2019-q3-update_1/bin/../lib/gcc/arm-none-eabi/8.3.1/../../../../arm-none-eabi/lib/thumb/v7e-m+fp/hard/libc.a(lib_a-fflush.o)
                                                  /opt/homebrew/Cellar/arm-gcc-bin@8/8-2019-q3-update_1/bin/../lib/gcc/arm-none-eabi/8.3.1/../../../../arm-none-eabi/lib/thumb/v7e-m+fp/hard/libc.a(lib_a-fclose.o)
                                                  /opt/homebrew/Cellar/arm-gcc-bin@8/8-2019-q3-update_1/bin/../lib/gcc/arm-none-eabi/8.3.1/../../../../arm-none-eabi/lib/thumb/v7e-m+fp/hard/librdimon.a(rdimon-syscalls.o)
__sinit_lock_acquire                              /opt/homebrew/Cellar/arm-gcc-bin@8/8-2019-q3-update_1/bin/../lib/gcc/arm-none-eabi/8.3.1/../../../../arm-none-eabi/lib/thumb/v7e-m+fp/hard/libc.a(lib_a-findfp.o)
__sinit_lock_release                              /opt/homebrew/Cellar/arm-gcc-bin@8/8-2019-q3-update_1/bin/../lib/gcc/arm-none-eabi/8.3.1/../../../../arm-none-eabi/lib/thumb/v7e-m+fp/hard/libc.a(lib_a-findfp.o)
__sread                                           /opt/homebrew/Cellar/arm-gcc-bin@8/8-2019-q3-update_1/bin/../lib/gcc/arm-none-eabi/8.3.1/../../../../arm-none-eabi/lib/thumb/v7e-m+fp/hard/libc.a(lib_a-stdio.o)
                                                  /opt/homebrew/Cellar/arm-gcc-bin@8/8-2019-q3-update_1/bin/../lib/gcc/arm-none-eabi/8.3.1/../../../../arm-none-eabi/lib/thumb/v7e-m+fp/hard/libc.a(lib_a-findfp.o)
__sseek                                           /opt/homebrew/Cellar/arm-gcc-bin@8/8-2019-q3-update_1/bin/../lib/gcc/arm-none-eabi/8.3.1/../../../../arm-none-eabi/lib/thumb/v7e-m+fp/hard/libc.a(lib_a-stdio.o)
                                                  /opt/homebrew/Cellar/arm-gcc-bin@8/8-2019-q3-update_1/bin/../lib/gcc/arm-none-eabi/8.3.1/../../../../arm-none-eabi/lib/thumb/v7e-m+fp/hard/libc.a(lib_a-findfp.o)
__stack_base__                                    /opt/homebrew/Cellar/arm-gcc-bin@8/8-2019-q3-update_1/bin/../lib/gcc/arm-none-eabi/8.3.1/../../../../arm-none-eabi/lib/thumb/v7e-m+fp/hard/rdimon-crt0.o
__subdf3                                          /opt/homebrew/Cellar/arm-gcc-bin@8/8-2019-q3-update_1/bin/../lib/gcc/arm-none-eabi/8.3.1/thumb/v7e-m+fp/hard/libgcc.a(_arm_addsubdf3.o)
__swrite                                          /opt/homebrew/Cellar/arm-gcc-bin@8/8-2019-q3-update_1/bin/../lib/gcc/arm-none-eabi/8.3.1/../../../../arm-none-eabi/lib/thumb/v7e-m+fp/hard/libc.a(lib_a-stdio.o)
                                                  /opt/homebrew/Cellar/arm-gcc-bin@8/8-2019-q3-update_1/bin/../lib/gcc/arm-none-eabi/8.3.1/../../../../arm-none-eabi/lib/thumb/v7e-m+fp/hard/libc.a(lib_a-findfp.o)
__udivmoddi4                                      /opt/homebrew/Cellar/arm-gcc-bin@8/8-2019-q3-update_1/bin/../lib/gcc/arm-none-eabi/8.3.1/thumb/v7e-m+fp/hard/libgcc.a(_udivmoddi4.o)
                                                  /opt/homebrew/Cellar/arm-gcc-bin@8/8-2019-q3-update_1/bin/../lib/gcc/arm-none-eabi/8.3.1/thumb/v7e-m+fp/hard/libgcc.a(_aeabi_uldivmod.o)
                                                  /opt/homebrew/Cellar/arm-gcc-bin@8/8-2019-q3-update_1/bin/../lib/gcc/arm-none-eabi/8.3.1/thumb/v7e-m+fp/hard/libgcc.a(_aeabi_ldivmod.o)
_cleanup                                          /opt/homebrew/Cellar/arm-gcc-bin@8/8-2019-q3-update_1/bin/../lib/gcc/arm-none-eabi/8.3.1/../../../../arm-none-eabi/lib/thumb/v7e-m+fp/hard/libc.a(lib_a-findfp.o)
_cleanup_r                                        /opt/homebrew/Cellar/arm-gcc-bin@8/8-2019-q3-update_1/bin/../lib/gcc/arm-none-eabi/8.3.1/../../../../arm-none-eabi/lib/thumb/v7e-m+fp/hard/libc.a(lib_a-findfp.o)
_clock                                            /opt/homebrew/Cellar/arm-gcc-bin@8/8-2019-q3-update_1/bin/../lib/gcc/arm-none-eabi/8.3.1/../../../../arm-none-eabi/lib/thumb/v7e-m+fp/hard/librdimon.a(rdimon-syscalls.o)
_close                                            /opt/homebrew/Cellar/arm-gcc-bin@8/8-2019-q3-update_1/bin/../lib/gcc/arm-none-eabi/8.3.1/../../../../arm-none-eabi/lib/thumb/v7e-m+fp/hard/librdimon.a(rdimon-syscalls.o)
                                                  /opt/homebrew/Cellar/arm-gcc-bin@8/8-2019-q3-update_1/bin/../lib/gcc/arm-none-eabi/8.3.1/../../../../arm-none-eabi/lib/thumb/v7e-m+fp/hard/libc.a(lib_a-closer.o)
_close_r                                          /opt/homebrew/Cellar/arm-gcc-bin@8/8-2019-q3-update_1/bin/../lib/gcc/arm-none-eabi/8.3.1/../../../../arm-none-eabi/lib/thumb/v7e-m+fp/hard/libc.a(lib_a-closer.o)
                                                  /opt/homebrew/Cellar/arm-gcc-bin@8/8-2019-q3-update_1/bin/../lib/gcc/arm-none-eabi/8.3.1/../../../../arm-none-eabi/lib/thumb/v7e-m+fp/hard/libc.a(lib_a-stdio.o)
_ctype_                                           /opt/homebrew/Cellar/arm-gcc-bin@8/8-2019-q3-update_1/bin/../lib/gcc/arm-none-eabi/8.3.1/../../../../arm-none-eabi/lib/thumb/v7e-m+fp/hard/libg.a(lib_a-ctype_.o)
                                                  .build/obj_massdrop_ctrl_default/quantum/send_string.o
_eram                                             .build/obj_massdrop_ctrl_default/protocol/arm_atsam/startup.o
                                                  .build/obj_massdrop_ctrl_default/platforms/arm_atsam/bootloader.o
_erelocate                                        .build/obj_massdrop_ctrl_default/protocol/arm_atsam/startup.o
_estack                                           .build/obj_massdrop_ctrl_default/protocol/arm_atsam/startup.o
_etext                                            .build/obj_massdrop_ctrl_default/protocol/arm_atsam/startup.o
_exit                                             /opt/homebrew/Cellar/arm-gcc-bin@8/8-2019-q3-update_1/bin/../lib/gcc/arm-none-eabi/8.3.1/../../../../arm-none-eabi/lib/thumb/v7e-m+fp/hard/librdimon.a(rdimon-_exit.o)
                                                  /opt/homebrew/Cellar/arm-gcc-bin@8/8-2019-q3-update_1/bin/../lib/gcc/arm-none-eabi/8.3.1/../../../../arm-none-eabi/lib/thumb/v7e-m+fp/hard/libg.a(lib_a-exit.o)
_ezero                                            .build/obj_massdrop_ctrl_default/protocol/arm_atsam/startup.o
_fclose_r                                         /opt/homebrew/Cellar/arm-gcc-bin@8/8-2019-q3-update_1/bin/../lib/gcc/arm-none-eabi/8.3.1/../../../../arm-none-eabi/lib/thumb/v7e-m+fp/hard/libc.a(lib_a-fclose.o)
                                                  /opt/homebrew/Cellar/arm-gcc-bin@8/8-2019-q3-update_1/bin/../lib/gcc/arm-none-eabi/8.3.1/../../../../arm-none-eabi/lib/thumb/v7e-m+fp/hard/libc.a(lib_a-findfp.o)
_fflush_r                                         /opt/homebrew/Cellar/arm-gcc-bin@8/8-2019-q3-update_1/bin/../lib/gcc/arm-none-eabi/8.3.1/../../../../arm-none-eabi/lib/thumb/v7e-m+fp/hard/libc.a(lib_a-fflush.o)
_fini                                             /opt/homebrew/Cellar/arm-gcc-bin@8/8-2019-q3-update_1/bin/../lib/gcc/arm-none-eabi/8.3.1/thumb/v7e-m+fp/hard/crti.o
                                                  /opt/homebrew/Cellar/arm-gcc-bin@8/8-2019-q3-update_1/bin/../lib/gcc/arm-none-eabi/8.3.1/../../../../arm-none-eabi/lib/thumb/v7e-m+fp/hard/libg.a(lib_a-fini.o)
_free_r                                           /opt/homebrew/Cellar/arm-gcc-bin@8/8-2019-q3-update_1/bin/../lib/gcc/arm-none-eabi/8.3.1/../../../../arm-none-eabi/lib/thumb/v7e-m+fp/hard/libc.a(lib_a-freer.o)
                                                  /opt/homebrew/Cellar/arm-gcc-bin@8/8-2019-q3-update_1/bin/../lib/gcc/arm-none-eabi/8.3.1/../../../../arm-none-eabi/lib/thumb/v7e-m+fp/hard/libc.a(lib_a-reent.o)
                                                  /opt/homebrew/Cellar/arm-gcc-bin@8/8-2019-q3-update_1/bin/../lib/gcc/arm-none-eabi/8.3.1/../../../../arm-none-eabi/lib/thumb/v7e-m+fp/hard/libc.a(lib_a-fflush.o)
                                                  /opt/homebrew/Cellar/arm-gcc-bin@8/8-2019-q3-update_1/bin/../lib/gcc/arm-none-eabi/8.3.1/../../../../arm-none-eabi/lib/thumb/v7e-m+fp/hard/libc.a(lib_a-fclose.o)
                                                  /opt/homebrew/Cellar/arm-gcc-bin@8/8-2019-q3-update_1/bin/../lib/gcc/arm-none-eabi/8.3.1/../../../../arm-none-eabi/lib/thumb/v7e-m+fp/hard/libc.a(lib_a-mallocr.o)
_fstat                                            /opt/homebrew/Cellar/arm-gcc-bin@8/8-2019-q3-update_1/bin/../lib/gcc/arm-none-eabi/8.3.1/../../../../arm-none-eabi/lib/thumb/v7e-m+fp/hard/librdimon.a(rdimon-syscalls.o)
_fwalk                                            /opt/homebrew/Cellar/arm-gcc-bin@8/8-2019-q3-update_1/bin/../lib/gcc/arm-none-eabi/8.3.1/../../../../arm-none-eabi/lib/thumb/v7e-m+fp/hard/libc.a(lib_a-fwalk.o)
                                                  /opt/homebrew/Cellar/arm-gcc-bin@8/8-2019-q3-update_1/bin/../lib/gcc/arm-none-eabi/8.3.1/../../../../arm-none-eabi/lib/thumb/v7e-m+fp/hard/libc.a(lib_a-findfp.o)
_fwalk_reent                                      /opt/homebrew/Cellar/arm-gcc-bin@8/8-2019-q3-update_1/bin/../lib/gcc/arm-none-eabi/8.3.1/../../../../arm-none-eabi/lib/thumb/v7e-m+fp/hard/libc.a(lib_a-fwalk.o)
                                                  /opt/homebrew/Cellar/arm-gcc-bin@8/8-2019-q3-update_1/bin/../lib/gcc/arm-none-eabi/8.3.1/../../../../arm-none-eabi/lib/thumb/v7e-m+fp/hard/libc.a(lib_a-fflush.o)
                                                  /opt/homebrew/Cellar/arm-gcc-bin@8/8-2019-q3-update_1/bin/../lib/gcc/arm-none-eabi/8.3.1/../../../../arm-none-eabi/lib/thumb/v7e-m+fp/hard/libc.a(lib_a-findfp.o)
_get_semihosting_exts                             /opt/homebrew/Cellar/arm-gcc-bin@8/8-2019-q3-update_1/bin/../lib/gcc/arm-none-eabi/8.3.1/../../../../arm-none-eabi/lib/thumb/v7e-m+fp/hard/librdimon.a(rdimon-syscalls.o)
_getpid                                           /opt/homebrew/Cellar/arm-gcc-bin@8/8-2019-q3-update_1/bin/../lib/gcc/arm-none-eabi/8.3.1/../../../../arm-none-eabi/lib/thumb/v7e-m+fp/hard/librdimon.a(rdimon-syscalls.o)
_gettimeofday                                     /opt/homebrew/Cellar/arm-gcc-bin@8/8-2019-q3-update_1/bin/../lib/gcc/arm-none-eabi/8.3.1/../../../../arm-none-eabi/lib/thumb/v7e-m+fp/hard/librdimon.a(rdimon-syscalls.o)
_global_impure_ptr                                /opt/homebrew/Cellar/arm-gcc-bin@8/8-2019-q3-update_1/bin/../lib/gcc/arm-none-eabi/8.3.1/../../../../arm-none-eabi/lib/thumb/v7e-m+fp/hard/libg.a(lib_a-impure.o)
                                                  /opt/homebrew/Cellar/arm-gcc-bin@8/8-2019-q3-update_1/bin/../lib/gcc/arm-none-eabi/8.3.1/../../../../arm-none-eabi/lib/thumb/v7e-m+fp/hard/libc.a(lib_a-fflush.o)
                                                  /opt/homebrew/Cellar/arm-gcc-bin@8/8-2019-q3-update_1/bin/../lib/gcc/arm-none-eabi/8.3.1/../../../../arm-none-eabi/lib/thumb/v7e-m+fp/hard/libc.a(lib_a-findfp.o)
                                                  /opt/homebrew/Cellar/arm-gcc-bin@8/8-2019-q3-update_1/bin/../lib/gcc/arm-none-eabi/8.3.1/../../../../arm-none-eabi/lib/thumb/v7e-m+fp/hard/libg.a(lib_a-__atexit.o)
                                                  /opt/homebrew/Cellar/arm-gcc-bin@8/8-2019-q3-update_1/bin/../lib/gcc/arm-none-eabi/8.3.1/../../../../arm-none-eabi/lib/thumb/v7e-m+fp/hard/libg.a(lib_a-__call_atexit.o)
                                                  /opt/homebrew/Cellar/arm-gcc-bin@8/8-2019-q3-update_1/bin/../lib/gcc/arm-none-eabi/8.3.1/../../../../arm-none-eabi/lib/thumb/v7e-m+fp/hard/libg.a(lib_a-exit.o)
_has_ext_exit_extended                            /opt/homebrew/Cellar/arm-gcc-bin@8/8-2019-q3-update_1/bin/../lib/gcc/arm-none-eabi/8.3.1/../../../../arm-none-eabi/lib/thumb/v7e-m+fp/hard/librdimon.a(rdimon-syscalls.o)
                                                  /opt/homebrew/Cellar/arm-gcc-bin@8/8-2019-q3-update_1/bin/../lib/gcc/arm-none-eabi/8.3.1/../../../../arm-none-eabi/lib/thumb/v7e-m+fp/hard/librdimon.a(rdimon-_kill.o)
_has_ext_stdout_stderr                            /opt/homebrew/Cellar/arm-gcc-bin@8/8-2019-q3-update_1/bin/../lib/gcc/arm-none-eabi/8.3.1/../../../../arm-none-eabi/lib/thumb/v7e-m+fp/hard/librdimon.a(rdimon-syscalls.o)
_impure_ptr                                       /opt/homebrew/Cellar/arm-gcc-bin@8/8-2019-q3-update_1/bin/../lib/gcc/arm-none-eabi/8.3.1/../../../../arm-none-eabi/lib/thumb/v7e-m+fp/hard/libg.a(lib_a-impure.o)
                                                  /opt/homebrew/Cellar/arm-gcc-bin@8/8-2019-q3-update_1/bin/../lib/gcc/arm-none-eabi/8.3.1/../../../../arm-none-eabi/lib/thumb/v7e-m+fp/hard/libc.a(lib_a-reent.o)
                                                  /opt/homebrew/Cellar/arm-gcc-bin@8/8-2019-q3-update_1/bin/../lib/gcc/arm-none-eabi/8.3.1/../../../../arm-none-eabi/lib/thumb/v7e-m+fp/hard/libc.a(lib_a-fflush.o)
                                                  /opt/homebrew/Cellar/arm-gcc-bin@8/8-2019-q3-update_1/bin/../lib/gcc/arm-none-eabi/8.3.1/../../../../arm-none-eabi/lib/thumb/v7e-m+fp/hard/libc.a(lib_a-fclose.o)
                                                  /opt/homebrew/Cellar/arm-gcc-bin@8/8-2019-q3-update_1/bin/../lib/gcc/arm-none-eabi/8.3.1/../../../../arm-none-eabi/lib/thumb/v7e-m+fp/hard/libc.a(lib_a-findfp.o)
                                                  /opt/homebrew/Cellar/arm-gcc-bin@8/8-2019-q3-update_1/bin/../lib/gcc/arm-none-eabi/8.3.1/../../../../arm-none-eabi/lib/thumb/v7e-m+fp/hard/libc.a(lib_a-errno.o)
                                                  /opt/homebrew/Cellar/arm-gcc-bin@8/8-2019-q3-update_1/bin/../lib/gcc/arm-none-eabi/8.3.1/../../../../arm-none-eabi/lib/thumb/v7e-m+fp/hard/librdimon.a(rdimon-syscalls.o)
                                                  /opt/homebrew/Cellar/arm-gcc-bin@8/8-2019-q3-update_1/bin/../lib/gcc/arm-none-eabi/8.3.1/../../../../arm-none-eabi/lib/thumb/v7e-m+fp/hard/libg.a(lib_a-rand.o)
_init                                             /opt/homebrew/Cellar/arm-gcc-bin@8/8-2019-q3-update_1/bin/../lib/gcc/arm-none-eabi/8.3.1/thumb/v7e-m+fp/hard/crti.o
                                                  /opt/homebrew/Cellar/arm-gcc-bin@8/8-2019-q3-update_1/bin/../lib/gcc/arm-none-eabi/8.3.1/../../../../arm-none-eabi/lib/thumb/v7e-m+fp/hard/libg.a(lib_a-init.o)
_isatty                                           /opt/homebrew/Cellar/arm-gcc-bin@8/8-2019-q3-update_1/bin/../lib/gcc/arm-none-eabi/8.3.1/../../../../arm-none-eabi/lib/thumb/v7e-m+fp/hard/librdimon.a(rdimon-syscalls.o)
_kill                                             /opt/homebrew/Cellar/arm-gcc-bin@8/8-2019-q3-update_1/bin/../lib/gcc/arm-none-eabi/8.3.1/../../../../arm-none-eabi/lib/thumb/v7e-m+fp/hard/librdimon.a(rdimon-_kill.o)
_kill_shared                                      /opt/homebrew/Cellar/arm-gcc-bin@8/8-2019-q3-update_1/bin/../lib/gcc/arm-none-eabi/8.3.1/../../../../arm-none-eabi/lib/thumb/v7e-m+fp/hard/librdimon.a(rdimon-_kill.o)
                                                  /opt/homebrew/Cellar/arm-gcc-bin@8/8-2019-q3-update_1/bin/../lib/gcc/arm-none-eabi/8.3.1/../../../../arm-none-eabi/lib/thumb/v7e-m+fp/hard/librdimon.a(rdimon-_exit.o)
_link                                             /opt/homebrew/Cellar/arm-gcc-bin@8/8-2019-q3-update_1/bin/../lib/gcc/arm-none-eabi/8.3.1/../../../../arm-none-eabi/lib/thumb/v7e-m+fp/hard/librdimon.a(rdimon-syscalls.o)
_lseek                                            /opt/homebrew/Cellar/arm-gcc-bin@8/8-2019-q3-update_1/bin/../lib/gcc/arm-none-eabi/8.3.1/../../../../arm-none-eabi/lib/thumb/v7e-m+fp/hard/librdimon.a(rdimon-syscalls.o)
                                                  /opt/homebrew/Cellar/arm-gcc-bin@8/8-2019-q3-update_1/bin/../lib/gcc/arm-none-eabi/8.3.1/../../../../arm-none-eabi/lib/thumb/v7e-m+fp/hard/libc.a(lib_a-lseekr.o)
_lseek_r                                          /opt/homebrew/Cellar/arm-gcc-bin@8/8-2019-q3-update_1/bin/../lib/gcc/arm-none-eabi/8.3.1/../../../../arm-none-eabi/lib/thumb/v7e-m+fp/hard/libc.a(lib_a-lseekr.o)
                                                  /opt/homebrew/Cellar/arm-gcc-bin@8/8-2019-q3-update_1/bin/../lib/gcc/arm-none-eabi/8.3.1/../../../../arm-none-eabi/lib/thumb/v7e-m+fp/hard/libc.a(lib_a-stdio.o)
_mainCRTStartup                                   /opt/homebrew/Cellar/arm-gcc-bin@8/8-2019-q3-update_1/bin/../lib/gcc/arm-none-eabi/8.3.1/../../../../arm-none-eabi/lib/thumb/v7e-m+fp/hard/rdimon-crt0.o
_malloc_r                                         /opt/homebrew/Cellar/arm-gcc-bin@8/8-2019-q3-update_1/bin/../lib/gcc/arm-none-eabi/8.3.1/../../../../arm-none-eabi/lib/thumb/v7e-m+fp/hard/libc.a(lib_a-mallocr.o)
                                                  /opt/homebrew/Cellar/arm-gcc-bin@8/8-2019-q3-update_1/bin/../lib/gcc/arm-none-eabi/8.3.1/../../../../arm-none-eabi/lib/thumb/v7e-m+fp/hard/libc.a(lib_a-findfp.o)
_malloc_trim_r                                    /opt/homebrew/Cellar/arm-gcc-bin@8/8-2019-q3-update_1/bin/../lib/gcc/arm-none-eabi/8.3.1/../../../../arm-none-eabi/lib/thumb/v7e-m+fp/hard/libc.a(lib_a-freer.o)
_open                                             /opt/homebrew/Cellar/arm-gcc-bin@8/8-2019-q3-update_1/bin/../lib/gcc/arm-none-eabi/8.3.1/../../../../arm-none-eabi/lib/thumb/v7e-m+fp/hard/librdimon.a(rdimon-syscalls.o)
_putchar                                          .build/obj_massdrop_ctrl_default/quantum/logging/print.o
                                                  .build/obj_massdrop_ctrl_default/lib/printf/printf.o
_read                                             /opt/homebrew/Cellar/arm-gcc-bin@8/8-2019-q3-update_1/bin/../lib/gcc/arm-none-eabi/8.3.1/../../../../arm-none-eabi/lib/thumb/v7e-m+fp/hard/librdimon.a(rdimon-syscalls.o)
                                                  /opt/homebrew/Cellar/arm-gcc-bin@8/8-2019-q3-update_1/bin/../lib/gcc/arm-none-eabi/8.3.1/../../../../arm-none-eabi/lib/thumb/v7e-m+fp/hard/libc.a(lib_a-readr.o)
_read_r                                           /opt/homebrew/Cellar/arm-gcc-bin@8/8-2019-q3-update_1/bin/../lib/gcc/arm-none-eabi/8.3.1/../../../../arm-none-eabi/lib/thumb/v7e-m+fp/hard/libc.a(lib_a-readr.o)
                                                  /opt/homebrew/Cellar/arm-gcc-bin@8/8-2019-q3-update_1/bin/../lib/gcc/arm-none-eabi/8.3.1/../../../../arm-none-eabi/lib/thumb/v7e-m+fp/hard/libc.a(lib_a-stdio.o)
_reclaim_reent                                    /opt/homebrew/Cellar/arm-gcc-bin@8/8-2019-q3-update_1/bin/../lib/gcc/arm-none-eabi/8.3.1/../../../../arm-none-eabi/lib/thumb/v7e-m+fp/hard/libc.a(lib_a-reent.o)
_rename                                           /opt/homebrew/Cellar/arm-gcc-bin@8/8-2019-q3-update_1/bin/../lib/gcc/arm-none-eabi/8.3.1/../../../../arm-none-eabi/lib/thumb/v7e-m+fp/hard/librdimon.a(rdimon-syscalls.o)
_sbrk                                             /opt/homebrew/Cellar/arm-gcc-bin@8/8-2019-q3-update_1/bin/../lib/gcc/arm-none-eabi/8.3.1/../../../../arm-none-eabi/lib/thumb/v7e-m+fp/hard/librdimon.a(rdimon-syscalls.o)
                                                  /opt/homebrew/Cellar/arm-gcc-bin@8/8-2019-q3-update_1/bin/../lib/gcc/arm-none-eabi/8.3.1/../../../../arm-none-eabi/lib/thumb/v7e-m+fp/hard/libc.a(lib_a-sbrkr.o)
_sbrk_r                                           /opt/homebrew/Cellar/arm-gcc-bin@8/8-2019-q3-update_1/bin/../lib/gcc/arm-none-eabi/8.3.1/../../../../arm-none-eabi/lib/thumb/v7e-m+fp/hard/libc.a(lib_a-sbrkr.o)
                                                  /opt/homebrew/Cellar/arm-gcc-bin@8/8-2019-q3-update_1/bin/../lib/gcc/arm-none-eabi/8.3.1/../../../../arm-none-eabi/lib/thumb/v7e-m+fp/hard/libc.a(lib_a-freer.o)
                                                  /opt/homebrew/Cellar/arm-gcc-bin@8/8-2019-q3-update_1/bin/../lib/gcc/arm-none-eabi/8.3.1/../../../../arm-none-eabi/lib/thumb/v7e-m+fp/hard/libc.a(lib_a-mallocr.o)
_sfixed                                           .build/obj_massdrop_ctrl_default/protocol/arm_atsam/startup.o
_srelocate                                        .build/obj_massdrop_ctrl_default/protocol/arm_atsam/startup.o
_srom                                             .build/obj_massdrop_ctrl_default/protocol/arm_atsam/usb/udc.o
_start                                            /opt/homebrew/Cellar/arm-gcc-bin@8/8-2019-q3-update_1/bin/../lib/gcc/arm-none-eabi/8.3.1/../../../../arm-none-eabi/lib/thumb/v7e-m+fp/hard/rdimon-crt0.o
_stat                                             /opt/homebrew/Cellar/arm-gcc-bin@8/8-2019-q3-update_1/bin/../lib/gcc/arm-none-eabi/8.3.1/../../../../arm-none-eabi/lib/thumb/v7e-m+fp/hard/librdimon.a(rdimon-syscalls.o)
_swiclose                                         /opt/homebrew/Cellar/arm-gcc-bin@8/8-2019-q3-update_1/bin/../lib/gcc/arm-none-eabi/8.3.1/../../../../arm-none-eabi/lib/thumb/v7e-m+fp/hard/librdimon.a(rdimon-syscalls.o)
_swilseek                                         /opt/homebrew/Cellar/arm-gcc-bin@8/8-2019-q3-update_1/bin/../lib/gcc/arm-none-eabi/8.3.1/../../../../arm-none-eabi/lib/thumb/v7e-m+fp/hard/librdimon.a(rdimon-syscalls.o)
_swiopen                                          /opt/homebrew/Cellar/arm-gcc-bin@8/8-2019-q3-update_1/bin/../lib/gcc/arm-none-eabi/8.3.1/../../../../arm-none-eabi/lib/thumb/v7e-m+fp/hard/librdimon.a(rdimon-syscalls.o)
_swiread                                          /opt/homebrew/Cellar/arm-gcc-bin@8/8-2019-q3-update_1/bin/../lib/gcc/arm-none-eabi/8.3.1/../../../../arm-none-eabi/lib/thumb/v7e-m+fp/hard/librdimon.a(rdimon-syscalls.o)
_swistat                                          /opt/homebrew/Cellar/arm-gcc-bin@8/8-2019-q3-update_1/bin/../lib/gcc/arm-none-eabi/8.3.1/../../../../arm-none-eabi/lib/thumb/v7e-m+fp/hard/librdimon.a(rdimon-syscalls.o)
_swiwrite                                         /opt/homebrew/Cellar/arm-gcc-bin@8/8-2019-q3-update_1/bin/../lib/gcc/arm-none-eabi/8.3.1/../../../../arm-none-eabi/lib/thumb/v7e-m+fp/hard/librdimon.a(rdimon-syscalls.o)
_system                                           /opt/homebrew/Cellar/arm-gcc-bin@8/8-2019-q3-update_1/bin/../lib/gcc/arm-none-eabi/8.3.1/../../../../arm-none-eabi/lib/thumb/v7e-m+fp/hard/librdimon.a(rdimon-syscalls.o)
_szero                                            .build/obj_massdrop_ctrl_default/protocol/arm_atsam/startup.o
_times                                            /opt/homebrew/Cellar/arm-gcc-bin@8/8-2019-q3-update_1/bin/../lib/gcc/arm-none-eabi/8.3.1/../../../../arm-none-eabi/lib/thumb/v7e-m+fp/hard/librdimon.a(rdimon-syscalls.o)
_unlink                                           /opt/homebrew/Cellar/arm-gcc-bin@8/8-2019-q3-update_1/bin/../lib/gcc/arm-none-eabi/8.3.1/../../../../arm-none-eabi/lib/thumb/v7e-m+fp/hard/librdimon.a(rdimon-syscalls.o)
_write                                            /opt/homebrew/Cellar/arm-gcc-bin@8/8-2019-q3-update_1/bin/../lib/gcc/arm-none-eabi/8.3.1/../../../../arm-none-eabi/lib/thumb/v7e-m+fp/hard/librdimon.a(rdimon-syscalls.o)
                                                  /opt/homebrew/Cellar/arm-gcc-bin@8/8-2019-q3-update_1/bin/../lib/gcc/arm-none-eabi/8.3.1/../../../../arm-none-eabi/lib/thumb/v7e-m+fp/hard/libc.a(lib_a-writer.o)
_write_r                                          /opt/homebrew/Cellar/arm-gcc-bin@8/8-2019-q3-update_1/bin/../lib/gcc/arm-none-eabi/8.3.1/../../../../arm-none-eabi/lib/thumb/v7e-m+fp/hard/libc.a(lib_a-writer.o)
                                                  /opt/homebrew/Cellar/arm-gcc-bin@8/8-2019-q3-update_1/bin/../lib/gcc/arm-none-eabi/8.3.1/../../../../arm-none-eabi/lib/thumb/v7e-m+fp/hard/libc.a(lib_a-stdio.o)
action_exec                                       .build/obj_massdrop_ctrl_default/quantum/action.o
                                                  .build/obj_massdrop_ctrl_default/quantum/keyboard.o
action_for_key                                    .build/obj_massdrop_ctrl_default/quantum/keymap_common.o
                                                  .build/obj_massdrop_ctrl_default/quantum/action_layer.o
action_for_keycode                                .build/obj_massdrop_ctrl_default/quantum/keymap_common.o
action_function                                   .build/obj_massdrop_ctrl_default/quantum/keymap_common.o
                                                  .build/obj_massdrop_ctrl_default/quantum/action.o
action_get_macro                                  .build/obj_massdrop_ctrl_default/quantum/keymap_common.o
                                                  .build/obj_massdrop_ctrl_default/quantum/action.o
action_macro_play                                 .build/obj_massdrop_ctrl_default/quantum/action_macro.o
                                                  .build/obj_massdrop_ctrl_default/quantum/action.o
action_tapping_process                            .build/obj_massdrop_ctrl_default/quantum/action_tapping.o
                                                  .build/obj_massdrop_ctrl_default/quantum/action.o
adc_extra                                         .build/obj_massdrop_ctrl_default/protocol/arm_atsam/usb/usb_hub.o
adc_get                                           .build/obj_massdrop_ctrl_default/protocol/arm_atsam/adc.o
                                                  .build/obj_massdrop_ctrl_default/protocol/arm_atsam/usb/usb_hub.o
                                                  .build/obj_massdrop_ctrl_default/protocol/arm_atsam/main_arm_atsam.o
add_key                                           .build/obj_massdrop_ctrl_default/quantum/action_util.o
                                                  .build/obj_massdrop_ctrl_default/quantum/process_keycode/process_grave_esc.o
                                                  .build/obj_massdrop_ctrl_default/quantum/action.o
add_key_bit                                       .build/obj_massdrop_ctrl_default/protocol/report.o
add_key_byte                                      .build/obj_massdrop_ctrl_default/protocol/report.o
add_key_to_report                                 .build/obj_massdrop_ctrl_default/protocol/report.o
                                                  .build/obj_massdrop_ctrl_default/quantum/action_util.o
add_macro_mods                                    .build/obj_massdrop_ctrl_default/quantum/action_util.o
                                                  .build/obj_massdrop_ctrl_default/quantum/action_macro.o
add_mods                                          .build/obj_massdrop_ctrl_default/quantum/action_util.o
                                                  .build/obj_massdrop_ctrl_default/quantum/action.o
add_oneshot_mods                                  .build/obj_massdrop_ctrl_default/quantum/action_util.o
add_weak_mods                                     .build/obj_massdrop_ctrl_default/quantum/action_util.o
                                                  .build/obj_massdrop_ctrl_default/quantum/action.o
arm_atsam_driver                                  .build/obj_massdrop_ctrl_default/protocol/arm_atsam/main_arm_atsam.o
ascii_to_altgr_lut                                .build/obj_massdrop_ctrl_default/quantum/send_string.o
ascii_to_dead_lut                                 .build/obj_massdrop_ctrl_default/quantum/send_string.o
ascii_to_keycode_lut                              .build/obj_massdrop_ctrl_default/quantum/send_string.o
ascii_to_shift_lut                                .build/obj_massdrop_ctrl_default/quantum/send_string.o
atexit                                            /opt/homebrew/Cellar/arm-gcc-bin@8/8-2019-q3-update_1/bin/../lib/gcc/arm-none-eabi/8.3.1/../../../../arm-none-eabi/lib/thumb/v7e-m+fp/hard/libg.a(lib_a-atexit.o)
                                                  /opt/homebrew/Cellar/arm-gcc-bin@8/8-2019-q3-update_1/bin/../lib/gcc/arm-none-eabi/8.3.1/../../../../arm-none-eabi/lib/thumb/v7e-m+fp/hard/libg.a(lib_a-__call_atexit.o)
                                                  /opt/homebrew/Cellar/arm-gcc-bin@8/8-2019-q3-update_1/bin/../lib/gcc/arm-none-eabi/8.3.1/../../../../arm-none-eabi/lib/thumb/v7e-m+fp/hard/rdimon-crt0.o
biton                                             .build/obj_massdrop_ctrl_default/quantum/bitwise.o
                                                  .build/obj_massdrop_ctrl_default/protocol/report.o
biton16                                           .build/obj_massdrop_ctrl_default/quantum/bitwise.o
biton32                                           .build/obj_massdrop_ctrl_default/quantum/bitwise.o
bitpop                                            .build/obj_massdrop_ctrl_default/quantum/bitwise.o
                                                  .build/obj_massdrop_ctrl_default/quantum/matrix_common.o
                                                  .build/obj_massdrop_ctrl_default/quantum/action_util.o
bitpop16                                          .build/obj_massdrop_ctrl_default/quantum/bitwise.o
bitpop32                                          .build/obj_massdrop_ctrl_default/quantum/bitwise.o
bitrev                                            .build/obj_massdrop_ctrl_default/quantum/bitwise.o
bitrev16                                          .build/obj_massdrop_ctrl_default/quantum/bitwise.o
bitrev32                                          .build/obj_massdrop_ctrl_default/quantum/bitwise.o
bootloader_jump                                   .build/obj_massdrop_ctrl_default/platforms/arm_atsam/bootloader.o
                                                  .build/obj_massdrop_ctrl_default/quantum/quantum.o
bootloader_serial_number                          .build/obj_massdrop_ctrl_default/protocol/arm_atsam/usb/udc.o
bootmagic                                         .build/obj_massdrop_ctrl_default/quantum/bootmagic/magic.o
cleanup_glue                                      /opt/homebrew/Cellar/arm-gcc-bin@8/8-2019-q3-update_1/bin/../lib/gcc/arm-none-eabi/8.3.1/../../../../arm-none-eabi/lib/thumb/v7e-m+fp/hard/libc.a(lib_a-reent.o)
clear_keyboard                                    .build/obj_massdrop_ctrl_default/quantum/action.o
                                                  .build/obj_massdrop_ctrl_default/quantum/process_keycode/process_magic.o
                                                  .build/obj_massdrop_ctrl_default/quantum/action_tapping.o
                                                  .build/obj_massdrop_ctrl_default/quantum/quantum.o
clear_keyboard_but_mods                           .build/obj_massdrop_ctrl_default/quantum/action.o
clear_keyboard_but_mods_and_keys                  .build/obj_massdrop_ctrl_default/quantum/action.o
                                                  .build/obj_massdrop_ctrl_default/quantum/action_layer.o
clear_keys                                        .build/obj_massdrop_ctrl_default/quantum/action_util.o
                                                  .build/obj_massdrop_ctrl_default/quantum/action.o
clear_keys_from_report                            .build/obj_massdrop_ctrl_default/protocol/report.o
                                                  .build/obj_massdrop_ctrl_default/quantum/action_util.o
clear_macro_mods                                  .build/obj_massdrop_ctrl_default/quantum/action_util.o
                                                  .build/obj_massdrop_ctrl_default/quantum/action.o
clear_mods                                        .build/obj_massdrop_ctrl_default/quantum/action_util.o
                                                  .build/obj_massdrop_ctrl_default/quantum/action.o
clear_oneshot_layer_state                         .build/obj_massdrop_ctrl_default/quantum/action_util.o
                                                  .build/obj_massdrop_ctrl_default/quantum/action.o
clear_oneshot_locked_mods                         .build/obj_massdrop_ctrl_default/quantum/action_util.o
clear_oneshot_mods                                .build/obj_massdrop_ctrl_default/quantum/action_util.o
                                                  .build/obj_massdrop_ctrl_default/quantum/action.o
clear_weak_mods                                   .build/obj_massdrop_ctrl_default/quantum/action_util.o
                                                  .build/obj_massdrop_ctrl_default/quantum/action.o
clk_enable_sercom_apbmask                         .build/obj_massdrop_ctrl_default/protocol/arm_atsam/clks.o
dbg_print                                         .build/obj_massdrop_ctrl_default/protocol/arm_atsam/d51_util.o
debounce                                          .build/obj_massdrop_ctrl_default/quantum/debounce/sym_defer_g.o
                                                  .build/obj_massdrop_ctrl_default/quantum/matrix.o
                                                  .build/obj_massdrop_ctrl_default/quantum/matrix_common.o
debounce_active                                   .build/obj_massdrop_ctrl_default/quantum/debounce/sym_defer_g.o
                                                  .build/obj_massdrop_ctrl_default/quantum/matrix_common.o
debounce_free                                     .build/obj_massdrop_ctrl_default/quantum/debounce/sym_defer_g.o
debounce_init                                     .build/obj_massdrop_ctrl_default/quantum/debounce/sym_defer_g.o
                                                  .build/obj_massdrop_ctrl_default/quantum/matrix.o
                                                  .build/obj_massdrop_ctrl_default/quantum/matrix_common.o
debug_action                                      .build/obj_massdrop_ctrl_default/quantum/action.o
debug_code                                        .build/obj_massdrop_ctrl_default/protocol/arm_atsam/d51_util.o
                                                  .build/obj_massdrop_ctrl_default/protocol/arm_atsam/usb/usb_hub.o
                                                  .build/obj_massdrop_ctrl_default/protocol/arm_atsam/spi_master.o
                                                  .build/obj_massdrop_ctrl_default/protocol/arm_atsam/main_arm_atsam.o
                                                  .build/obj_massdrop_ctrl_default/protocol/arm_atsam/md_rgb_matrix.o
                                                  .build/obj_massdrop_ctrl_default/protocol/arm_atsam/i2c_master.o
                                                  .build/obj_massdrop_ctrl_default/protocol/arm_atsam/clks.o
                                                  .build/obj_massdrop_ctrl_default/protocol/arm_atsam/adc.o
debug_code_disable                                .build/obj_massdrop_ctrl_default/protocol/arm_atsam/d51_util.o
                                                  .build/obj_massdrop_ctrl_default/protocol/arm_atsam/main_arm_atsam.o
debug_code_init                                   .build/obj_massdrop_ctrl_default/protocol/arm_atsam/d51_util.o
                                                  .build/obj_massdrop_ctrl_default/protocol/arm_atsam/main_arm_atsam.o
debug_config                                      .build/obj_massdrop_ctrl_default/quantum/logging/debug.o
                                                  .build/obj_massdrop_ctrl_default/quantum/bootmagic/magic.o
                                                  .build/obj_massdrop_ctrl_default/quantum/keyboard.o
                                                  .build/obj_massdrop_ctrl_default/keyboards/massdrop/ctrl/keymaps/default/keymap.o
debug_event                                       .build/obj_massdrop_ctrl_default/quantum/action.o
                                                  .build/obj_massdrop_ctrl_default/quantum/action_tapping.o
debug_record                                      .build/obj_massdrop_ctrl_default/quantum/action.o
                                                  .build/obj_massdrop_ctrl_default/quantum/action_tapping.o
default_layer_and                                 .build/obj_massdrop_ctrl_default/quantum/action_layer.o
                                                  .build/obj_massdrop_ctrl_default/quantum/action.o
default_layer_debug                               .build/obj_massdrop_ctrl_default/quantum/action_layer.o
                                                  .build/obj_massdrop_ctrl_default/quantum/action.o
default_layer_or                                  .build/obj_massdrop_ctrl_default/quantum/action_layer.o
                                                  .build/obj_massdrop_ctrl_default/quantum/action.o
default_layer_set                                 .build/obj_massdrop_ctrl_default/quantum/action_layer.o
                                                  .build/obj_massdrop_ctrl_default/quantum/bootmagic/magic.o
                                                  .build/obj_massdrop_ctrl_default/quantum/action.o
                                                  .build/obj_massdrop_ctrl_default/quantum/quantum.o
default_layer_state                               .build/obj_massdrop_ctrl_default/quantum/action_layer.o
                                                  .build/obj_massdrop_ctrl_default/quantum/eeconfig.o
default_layer_state_set_kb                        .build/obj_massdrop_ctrl_default/quantum/action_layer.o
default_layer_state_set_user                      .build/obj_massdrop_ctrl_default/quantum/action_layer.o
default_layer_xor                                 .build/obj_massdrop_ctrl_default/quantum/action_layer.o
                                                  .build/obj_massdrop_ctrl_default/quantum/action.o
del_key                                           .build/obj_massdrop_ctrl_default/quantum/action_util.o
                                                  .build/obj_massdrop_ctrl_default/quantum/process_keycode/process_grave_esc.o
                                                  .build/obj_massdrop_ctrl_default/quantum/action.o
del_key_bit                                       .build/obj_massdrop_ctrl_default/protocol/report.o
del_key_byte                                      .build/obj_massdrop_ctrl_default/protocol/report.o
del_key_from_report                               .build/obj_massdrop_ctrl_default/protocol/report.o
                                                  .build/obj_massdrop_ctrl_default/quantum/action_util.o
del_macro_mods                                    .build/obj_massdrop_ctrl_default/quantum/action_util.o
                                                  .build/obj_massdrop_ctrl_default/quantum/action_macro.o
del_mods                                          .build/obj_massdrop_ctrl_default/quantum/action_util.o
                                                  .build/obj_massdrop_ctrl_default/quantum/action.o
del_oneshot_mods                                  .build/obj_massdrop_ctrl_default/quantum/action_util.o
del_weak_mods                                     .build/obj_massdrop_ctrl_default/quantum/action_util.o
                                                  .build/obj_massdrop_ctrl_default/quantum/action.o
digit                                             .build/obj_massdrop_ctrl_default/protocol/arm_atsam/usb/usb_util.o
disable_action_cache                              .build/obj_massdrop_ctrl_default/quantum/action.o
                                                  .build/obj_massdrop_ctrl_default/quantum/action_layer.o
                                                  .build/obj_massdrop_ctrl_default/quantum/quantum.o
disable_jtag                                      .build/obj_massdrop_ctrl_default/quantum/keyboard.o
dled_print                                        .build/obj_massdrop_ctrl_default/protocol/arm_atsam/d51_util.o
dmac_desc                                         .build/obj_massdrop_ctrl_default/protocol/arm_atsam/i2c_master.o
dmac_desc_wb                                      .build/obj_massdrop_ctrl_default/protocol/arm_atsam/i2c_master.o
eeconfig_debug_rgb_matrix                         .build/obj_massdrop_ctrl_default/quantum/rgb_matrix/rgb_matrix.o
eeconfig_disable                                  .build/obj_massdrop_ctrl_default/quantum/eeconfig.o
eeconfig_enable                                   .build/obj_massdrop_ctrl_default/quantum/eeconfig.o
eeconfig_init                                     .build/obj_massdrop_ctrl_default/quantum/eeconfig.o
                                                  .build/obj_massdrop_ctrl_default/quantum/rgb_matrix/rgb_matrix.o
                                                  .build/obj_massdrop_ctrl_default/quantum/bootmagic/magic.o
                                                  .build/obj_massdrop_ctrl_default/quantum/quantum.o
eeconfig_init_kb                                  .build/obj_massdrop_ctrl_default/quantum/eeconfig.o
eeconfig_init_quantum                             .build/obj_massdrop_ctrl_default/quantum/eeconfig.o
eeconfig_init_user                                .build/obj_massdrop_ctrl_default/quantum/eeconfig.o
eeconfig_is_disabled                              .build/obj_massdrop_ctrl_default/quantum/eeconfig.o
eeconfig_is_enabled                               .build/obj_massdrop_ctrl_default/quantum/eeconfig.o
                                                  .build/obj_massdrop_ctrl_default/quantum/rgb_matrix/rgb_matrix.o
                                                  .build/obj_massdrop_ctrl_default/quantum/bootmagic/magic.o
eeconfig_read_audio                               .build/obj_massdrop_ctrl_default/quantum/eeconfig.o
eeconfig_read_debug                               .build/obj_massdrop_ctrl_default/quantum/eeconfig.o
                                                  .build/obj_massdrop_ctrl_default/quantum/bootmagic/magic.o
eeconfig_read_default_layer                       .build/obj_massdrop_ctrl_default/quantum/eeconfig.o
                                                  .build/obj_massdrop_ctrl_default/quantum/bootmagic/magic.o
eeconfig_read_handedness                          .build/obj_massdrop_ctrl_default/quantum/eeconfig.o
eeconfig_read_haptic                              .build/obj_massdrop_ctrl_default/quantum/eeconfig.o
eeconfig_read_kb                                  .build/obj_massdrop_ctrl_default/quantum/eeconfig.o
eeconfig_read_keymap                              .build/obj_massdrop_ctrl_default/quantum/eeconfig.o
                                                  .build/obj_massdrop_ctrl_default/quantum/process_keycode/process_magic.o
                                                  .build/obj_massdrop_ctrl_default/quantum/bootmagic/magic.o
eeconfig_read_user                                .build/obj_massdrop_ctrl_default/quantum/eeconfig.o
eeconfig_update_audio                             .build/obj_massdrop_ctrl_default/quantum/eeconfig.o
eeconfig_update_debug                             .build/obj_massdrop_ctrl_default/quantum/eeconfig.o
eeconfig_update_default_layer                     .build/obj_massdrop_ctrl_default/quantum/eeconfig.o
                                                  .build/obj_massdrop_ctrl_default/quantum/quantum.o
eeconfig_update_handedness                        .build/obj_massdrop_ctrl_default/quantum/eeconfig.o
                                                  .build/obj_massdrop_ctrl_default/quantum/process_keycode/process_magic.o
eeconfig_update_haptic                            .build/obj_massdrop_ctrl_default/quantum/eeconfig.o
eeconfig_update_kb                                .build/obj_massdrop_ctrl_default/quantum/eeconfig.o
eeconfig_update_keymap                            .build/obj_massdrop_ctrl_default/quantum/eeconfig.o
                                                  .build/obj_massdrop_ctrl_default/quantum/process_keycode/process_magic.o
                                                  .build/obj_massdrop_ctrl_default/quantum/action_util.o
eeconfig_update_rgb_matrix                        .build/obj_massdrop_ctrl_default/quantum/rgb_matrix/rgb_matrix.o
eeconfig_update_rgb_matrix_default                .build/obj_massdrop_ctrl_default/quantum/rgb_matrix/rgb_matrix.o
eeconfig_update_user                              .build/obj_massdrop_ctrl_default/quantum/eeconfig.o
eeprom_read_block                                 .build/obj_massdrop_ctrl_default/platforms/arm_atsam/eeprom.o
                                                  .build/obj_massdrop_ctrl_default/quantum/rgb_matrix/rgb_matrix.o
eeprom_read_byte                                  .build/obj_massdrop_ctrl_default/platforms/arm_atsam/eeprom.o
                                                  .build/obj_massdrop_ctrl_default/quantum/eeconfig.o
eeprom_read_dword                                 .build/obj_massdrop_ctrl_default/platforms/arm_atsam/eeprom.o
                                                  .build/obj_massdrop_ctrl_default/quantum/eeconfig.o
eeprom_read_word                                  .build/obj_massdrop_ctrl_default/platforms/arm_atsam/eeprom.o
                                                  .build/obj_massdrop_ctrl_default/quantum/eeconfig.o
eeprom_update_block                               .build/obj_massdrop_ctrl_default/platforms/arm_atsam/eeprom.o
                                                  .build/obj_massdrop_ctrl_default/quantum/rgb_matrix/rgb_matrix.o
eeprom_update_byte                                .build/obj_massdrop_ctrl_default/platforms/arm_atsam/eeprom.o
                                                  .build/obj_massdrop_ctrl_default/quantum/eeconfig.o
eeprom_update_dword                               .build/obj_massdrop_ctrl_default/platforms/arm_atsam/eeprom.o
                                                  .build/obj_massdrop_ctrl_default/quantum/eeconfig.o
eeprom_update_word                                .build/obj_massdrop_ctrl_default/platforms/arm_atsam/eeprom.o
                                                  .build/obj_massdrop_ctrl_default/quantum/eeconfig.o
eeprom_write_block                                .build/obj_massdrop_ctrl_default/platforms/arm_atsam/eeprom.o
eeprom_write_byte                                 .build/obj_massdrop_ctrl_default/platforms/arm_atsam/eeprom.o
eeprom_write_dword                                .build/obj_massdrop_ctrl_default/platforms/arm_atsam/eeprom.o
eeprom_write_word                                 .build/obj_massdrop_ctrl_default/platforms/arm_atsam/eeprom.o
effect_runner_dx_dy                               .build/obj_massdrop_ctrl_default/quantum/rgb_matrix/rgb_matrix.o
effect_runner_dx_dy_dist                          .build/obj_massdrop_ctrl_default/quantum/rgb_matrix/rgb_matrix.o
effect_runner_i                                   .build/obj_massdrop_ctrl_default/quantum/rgb_matrix/rgb_matrix.o
effect_runner_reactive                            .build/obj_massdrop_ctrl_default/quantum/rgb_matrix/rgb_matrix.o
effect_runner_reactive_splash                     .build/obj_massdrop_ctrl_default/quantum/rgb_matrix/rgb_matrix.o
effect_runner_sin_cos_i                           .build/obj_massdrop_ctrl_default/quantum/rgb_matrix/rgb_matrix.o
end                                               /opt/homebrew/Cellar/arm-gcc-bin@8/8-2019-q3-update_1/bin/../lib/gcc/arm-none-eabi/8.3.1/../../../../arm-none-eabi/lib/thumb/v7e-m+fp/hard/librdimon.a(rdimon-syscalls.o)
errno                                             /opt/homebrew/Cellar/arm-gcc-bin@8/8-2019-q3-update_1/bin/../lib/gcc/arm-none-eabi/8.3.1/../../../../arm-none-eabi/lib/thumb/v7e-m+fp/hard/libc.a(lib_a-reent.o)
                                                  /opt/homebrew/Cellar/arm-gcc-bin@8/8-2019-q3-update_1/bin/../lib/gcc/arm-none-eabi/8.3.1/../../../../arm-none-eabi/lib/thumb/v7e-m+fp/hard/libc.a(lib_a-readr.o)
                                                  /opt/homebrew/Cellar/arm-gcc-bin@8/8-2019-q3-update_1/bin/../lib/gcc/arm-none-eabi/8.3.1/../../../../arm-none-eabi/lib/thumb/v7e-m+fp/hard/libc.a(lib_a-lseekr.o)
                                                  /opt/homebrew/Cellar/arm-gcc-bin@8/8-2019-q3-update_1/bin/../lib/gcc/arm-none-eabi/8.3.1/../../../../arm-none-eabi/lib/thumb/v7e-m+fp/hard/libc.a(lib_a-closer.o)
                                                  /opt/homebrew/Cellar/arm-gcc-bin@8/8-2019-q3-update_1/bin/../lib/gcc/arm-none-eabi/8.3.1/../../../../arm-none-eabi/lib/thumb/v7e-m+fp/hard/libc.a(lib_a-writer.o)
                                                  /opt/homebrew/Cellar/arm-gcc-bin@8/8-2019-q3-update_1/bin/../lib/gcc/arm-none-eabi/8.3.1/../../../../arm-none-eabi/lib/thumb/v7e-m+fp/hard/libc.a(lib_a-sbrkr.o)
exception_table                                   .build/obj_massdrop_ctrl_default/protocol/arm_atsam/startup.o
exit                                              /opt/homebrew/Cellar/arm-gcc-bin@8/8-2019-q3-update_1/bin/../lib/gcc/arm-none-eabi/8.3.1/../../../../arm-none-eabi/lib/thumb/v7e-m+fp/hard/libg.a(lib_a-exit.o)
                                                  /opt/homebrew/Cellar/arm-gcc-bin@8/8-2019-q3-update_1/bin/../lib/gcc/arm-none-eabi/8.3.1/../../../../arm-none-eabi/lib/thumb/v7e-m+fp/hard/rdimon-crt0.o
extract_mod_bits                                  .build/obj_massdrop_ctrl_default/quantum/quantum.o
fclose                                            /opt/homebrew/Cellar/arm-gcc-bin@8/8-2019-q3-update_1/bin/../lib/gcc/arm-none-eabi/8.3.1/../../../../arm-none-eabi/lib/thumb/v7e-m+fp/hard/libc.a(lib_a-fclose.o)
fctprintf                                         .build/obj_massdrop_ctrl_default/lib/printf/printf.o
fflush                                            /opt/homebrew/Cellar/arm-gcc-bin@8/8-2019-q3-update_1/bin/../lib/gcc/arm-none-eabi/8.3.1/../../../../arm-none-eabi/lib/thumb/v7e-m+fp/hard/libc.a(lib_a-fflush.o)
fn_actions                                        .build/obj_massdrop_ctrl_default/quantum/keymap_common.o
g_last_hit_tracker                                .build/obj_massdrop_ctrl_default/quantum/rgb_matrix/rgb_matrix.o
g_led_config                                      .build/obj_massdrop_ctrl_default/config_led.o
                                                  .build/obj_massdrop_ctrl_default/quantum/rgb_matrix/rgb_matrix.o
g_rgb_timer                                       .build/obj_massdrop_ctrl_default/quantum/rgb_matrix/rgb_matrix.o
g_tapping_term                                    .build/obj_massdrop_ctrl_default/quantum/action_tapping.o
g_usb_state                                       .build/obj_massdrop_ctrl_default/protocol/arm_atsam/main_arm_atsam.o
gcr_actual                                        .build/obj_massdrop_ctrl_default/protocol/arm_atsam/md_rgb_matrix.o
                                                  .build/obj_massdrop_ctrl_default/protocol/arm_atsam/i2c_master.o
gcr_actual_last                                   .build/obj_massdrop_ctrl_default/protocol/arm_atsam/md_rgb_matrix.o
                                                  .build/obj_massdrop_ctrl_default/protocol/arm_atsam/i2c_master.o
gcr_compute                                       .build/obj_massdrop_ctrl_default/protocol/arm_atsam/md_rgb_matrix.o
                                                  .build/obj_massdrop_ctrl_default/protocol/arm_atsam/main_arm_atsam.o
gcr_desired                                       .build/obj_massdrop_ctrl_default/protocol/arm_atsam/md_rgb_matrix.o
                                                  .build/obj_massdrop_ctrl_default/protocol/arm_atsam/i2c_master.o
get_event_keycode                                 .build/obj_massdrop_ctrl_default/quantum/quantum.o
get_first_key                                     .build/obj_massdrop_ctrl_default/protocol/report.o
get_macro_mods                                    .build/obj_massdrop_ctrl_default/quantum/action_util.o
get_mods                                          .build/obj_massdrop_ctrl_default/quantum/action_util.o
                                                  .build/obj_massdrop_ctrl_default/quantum/process_keycode/process_grave_esc.o
                                                  .build/obj_massdrop_ctrl_default/quantum/process_keycode/process_rgb.o
                                                  .build/obj_massdrop_ctrl_default/keyboards/massdrop/ctrl/keymaps/default/keymap.o
get_numeric_str                                   .build/obj_massdrop_ctrl_default/quantum/quantum.o
get_oneshot_layer                                 .build/obj_massdrop_ctrl_default/quantum/action_util.o
                                                  .build/obj_massdrop_ctrl_default/quantum/action.o
get_oneshot_layer_state                           .build/obj_massdrop_ctrl_default/quantum/action_util.o
                                                  .build/obj_massdrop_ctrl_default/quantum/action.o
get_oneshot_locked_mods                           .build/obj_massdrop_ctrl_default/quantum/action_util.o
get_oneshot_mods                                  .build/obj_massdrop_ctrl_default/quantum/action_util.o
                                                  .build/obj_massdrop_ctrl_default/quantum/action.o
get_record_keycode                                .build/obj_massdrop_ctrl_default/quantum/quantum.o
get_tapping_term                                  .build/obj_massdrop_ctrl_default/quantum/action_tapping.o
get_u16_str                                       .build/obj_massdrop_ctrl_default/quantum/quantum.o
get_u8_str                                        .build/obj_massdrop_ctrl_default/quantum/quantum.o
get_weak_mods                                     .build/obj_massdrop_ctrl_default/quantum/action_util.o
has_anykey                                        .build/obj_massdrop_ctrl_default/protocol/report.o
                                                  .build/obj_massdrop_ctrl_default/quantum/action_util.o
has_anymod                                        .build/obj_massdrop_ctrl_default/quantum/action_util.o
has_oneshot_mods_timed_out                        .build/obj_massdrop_ctrl_default/quantum/action_util.o
host_consumer_send                                .build/obj_massdrop_ctrl_default/protocol/host.o
                                                  .build/obj_massdrop_ctrl_default/quantum/action.o
host_digitizer_send                               .build/obj_massdrop_ctrl_default/protocol/host.o
host_get_driver                                   .build/obj_massdrop_ctrl_default/protocol/host.o
host_keyboard_led_state                           .build/obj_massdrop_ctrl_default/protocol/host.o
host_keyboard_leds                                .build/obj_massdrop_ctrl_default/protocol/host.o
                                                  .build/obj_massdrop_ctrl_default/quantum/keyboard.o
                                                  .build/obj_massdrop_ctrl_default/quantum/action.o
                                                  .build/obj_massdrop_ctrl_default/quantum/quantum.o
host_keyboard_send                                .build/obj_massdrop_ctrl_default/protocol/host.o
                                                  .build/obj_massdrop_ctrl_default/quantum/action_util.o
host_last_consumer_report                         .build/obj_massdrop_ctrl_default/protocol/host.o
host_last_programmable_button_report              .build/obj_massdrop_ctrl_default/protocol/host.o
host_last_system_report                           .build/obj_massdrop_ctrl_default/protocol/host.o
host_mouse_send                                   .build/obj_massdrop_ctrl_default/protocol/host.o
host_programmable_button_send                     .build/obj_massdrop_ctrl_default/protocol/host.o
host_set_driver                                   .build/obj_massdrop_ctrl_default/protocol/host.o
                                                  .build/obj_massdrop_ctrl_default/protocol/arm_atsam/main_arm_atsam.o
host_system_send                                  .build/obj_massdrop_ctrl_default/protocol/host.o
                                                  .build/obj_massdrop_ctrl_default/quantum/action.o
housekeeping_task                                 .build/obj_massdrop_ctrl_default/quantum/keyboard.o
                                                  .build/obj_massdrop_ctrl_default/protocol/arm_atsam/main_arm_atsam.o
                                                  .build/obj_massdrop_ctrl_default/quantum/main.o
housekeeping_task_kb                              .build/obj_massdrop_ctrl_default/quantum/keyboard.o
housekeeping_task_user                            .build/obj_massdrop_ctrl_default/quantum/keyboard.o
hsv_to_rgb                                        .build/obj_massdrop_ctrl_default/quantum/color.o
                                                  .build/obj_massdrop_ctrl_default/quantum/rgb_matrix/rgb_matrix.o
hsv_to_rgb_impl                                   .build/obj_massdrop_ctrl_default/quantum/color.o
hsv_to_rgb_nocie                                  .build/obj_massdrop_ctrl_default/quantum/color.o
i2c0_init                                         .build/obj_massdrop_ctrl_default/protocol/arm_atsam/i2c_master.o
i2c0_start                                        .build/obj_massdrop_ctrl_default/protocol/arm_atsam/i2c_master.o
i2c0_stop                                         .build/obj_massdrop_ctrl_default/protocol/arm_atsam/i2c_master.o
i2c0_transmit                                     .build/obj_massdrop_ctrl_default/protocol/arm_atsam/i2c_master.o
i2c1_init                                         .build/obj_massdrop_ctrl_default/protocol/arm_atsam/i2c_master.o
                                                  .build/obj_massdrop_ctrl_default/protocol/arm_atsam/main_arm_atsam.o
i2c1_start                                        .build/obj_massdrop_ctrl_default/protocol/arm_atsam/i2c_master.o
i2c1_stop                                         .build/obj_massdrop_ctrl_default/protocol/arm_atsam/i2c_master.o
                                                  .build/obj_massdrop_ctrl_default/protocol/arm_atsam/md_rgb_matrix.o
i2c1_transmit                                     .build/obj_massdrop_ctrl_default/protocol/arm_atsam/i2c_master.o
i2c_init                                          .build/obj_massdrop_ctrl_default/protocol/arm_atsam/i2c_master.o
                                                  .build/obj_massdrop_ctrl_default/drivers/usb2422.o
i2c_led_begin_dma                                 .build/obj_massdrop_ctrl_default/protocol/arm_atsam/i2c_master.o
i2c_led_desc_defaults                             .build/obj_massdrop_ctrl_default/protocol/arm_atsam/i2c_master.o
i2c_led_prepare_send_dma                          .build/obj_massdrop_ctrl_default/protocol/arm_atsam/i2c_master.o
i2c_led_q_add                                     .build/obj_massdrop_ctrl_default/protocol/arm_atsam/i2c_master.o
                                                  .build/obj_massdrop_ctrl_default/protocol/arm_atsam/main_arm_atsam.o
                                                  .build/obj_massdrop_ctrl_default/protocol/arm_atsam/md_rgb_matrix.o
i2c_led_q_available                               .build/obj_massdrop_ctrl_default/protocol/arm_atsam/i2c_master.o
i2c_led_q_init                                    .build/obj_massdrop_ctrl_default/protocol/arm_atsam/i2c_master.o
                                                  .build/obj_massdrop_ctrl_default/protocol/arm_atsam/main_arm_atsam.o
i2c_led_q_isempty                                 .build/obj_massdrop_ctrl_default/protocol/arm_atsam/i2c_master.o
i2c_led_q_request_room                            .build/obj_massdrop_ctrl_default/protocol/arm_atsam/i2c_master.o
                                                  .build/obj_massdrop_ctrl_default/protocol/arm_atsam/main_arm_atsam.o
                                                  .build/obj_massdrop_ctrl_default/protocol/arm_atsam/md_rgb_matrix.o
i2c_led_q_run                                     .build/obj_massdrop_ctrl_default/protocol/arm_atsam/i2c_master.o
                                                  .build/obj_massdrop_ctrl_default/protocol/arm_atsam/md_rgb_matrix.o
i2c_led_q_running                                 .build/obj_massdrop_ctrl_default/protocol/arm_atsam/i2c_master.o
                                                  .build/obj_massdrop_ctrl_default/protocol/arm_atsam/md_rgb_matrix.o
i2c_led_q_s_advance                               .build/obj_massdrop_ctrl_default/protocol/arm_atsam/i2c_master.o
i2c_led_q_size                                    .build/obj_massdrop_ctrl_default/protocol/arm_atsam/i2c_master.o
i2c_led_select_page                               .build/obj_massdrop_ctrl_default/protocol/arm_atsam/i2c_master.o
i2c_led_select_page_dma                           .build/obj_massdrop_ctrl_default/protocol/arm_atsam/i2c_master.o
i2c_led_send_CRWL                                 .build/obj_massdrop_ctrl_default/protocol/arm_atsam/i2c_master.o
i2c_led_send_CRWL_dma                             .build/obj_massdrop_ctrl_default/protocol/arm_atsam/i2c_master.o
i2c_led_send_GCR                                  .build/obj_massdrop_ctrl_default/protocol/arm_atsam/i2c_master.o
i2c_led_send_GCR_dma                              .build/obj_massdrop_ctrl_default/protocol/arm_atsam/i2c_master.o
i2c_led_send_mode_op_gcr                          .build/obj_massdrop_ctrl_default/protocol/arm_atsam/i2c_master.o
i2c_led_send_onoff                                .build/obj_massdrop_ctrl_default/protocol/arm_atsam/i2c_master.o
i2c_led_send_onoff_dma                            .build/obj_massdrop_ctrl_default/protocol/arm_atsam/i2c_master.o
i2c_led_send_pur_pdr                              .build/obj_massdrop_ctrl_default/protocol/arm_atsam/i2c_master.o
i2c_led_send_pwm                                  .build/obj_massdrop_ctrl_default/protocol/arm_atsam/i2c_master.o
i2c_led_send_pwm_dma                              .build/obj_massdrop_ctrl_default/protocol/arm_atsam/i2c_master.o
i2c_transmit                                      .build/obj_massdrop_ctrl_default/protocol/arm_atsam/i2c_master.o
                                                  .build/obj_massdrop_ctrl_default/drivers/usb2422.o
inbuf                                             .build/obj_massdrop_ctrl_default/protocol/arm_atsam/usb/udi_cdc.o
initialise_monitor_handles                        /opt/homebrew/Cellar/arm-gcc-bin@8/8-2019-q3-update_1/bin/../lib/gcc/arm-none-eabi/8.3.1/../../../../arm-none-eabi/lib/thumb/v7e-m+fp/hard/librdimon.a(rdimon-syscalls.o)
                                                  /opt/homebrew/Cellar/arm-gcc-bin@8/8-2019-q3-update_1/bin/../lib/gcc/arm-none-eabi/8.3.1/../../../../arm-none-eabi/lib/thumb/v7e-m+fp/hard/rdimon-crt0.o
is_key_pressed                                    .build/obj_massdrop_ctrl_default/protocol/report.o
                                                  .build/obj_massdrop_ctrl_default/quantum/action.o
is_keyboard_left                                  .build/obj_massdrop_ctrl_default/quantum/keyboard.o
is_keyboard_master                                .build/obj_massdrop_ctrl_default/quantum/keyboard.o
                                                  .build/obj_massdrop_ctrl_default/quantum/rgb_matrix/rgb_matrix.o
is_oneshot_enabled                                .build/obj_massdrop_ctrl_default/quantum/action_util.o
is_oneshot_layer_active                           .build/obj_massdrop_ctrl_default/quantum/action_util.o
                                                  .build/obj_massdrop_ctrl_default/quantum/action.o
is_tap_action                                     .build/obj_massdrop_ctrl_default/quantum/action.o
is_tap_key                                        .build/obj_massdrop_ctrl_default/quantum/action.o
is_tap_record                                     .build/obj_massdrop_ctrl_default/quantum/action.o
                                                  .build/obj_massdrop_ctrl_default/quantum/action_tapping.o
issi3733_prepare_arrays                           .build/obj_massdrop_ctrl_default/protocol/arm_atsam/md_rgb_matrix.o
issidrv                                           .build/obj_massdrop_ctrl_default/protocol/arm_atsam/md_rgb_matrix.o
                                                  .build/obj_massdrop_ctrl_default/protocol/arm_atsam/i2c_master.o
k_rgb_matrix_center                               .build/obj_massdrop_ctrl_default/quantum/rgb_matrix/rgb_matrix.o
keyboard_init                                     .build/obj_massdrop_ctrl_default/quantum/keyboard.o
                                                  .build/obj_massdrop_ctrl_default/protocol/arm_atsam/main_arm_atsam.o
                                                  .build/obj_massdrop_ctrl_default/quantum/main.o
keyboard_leds                                     .build/obj_massdrop_ctrl_default/protocol/arm_atsam/main_arm_atsam.o
                                                  .build/obj_massdrop_ctrl_default/protocol/arm_atsam/md_rgb_matrix.o
keyboard_post_init_kb                             .build/obj_massdrop_ctrl_default/quantum/keyboard.o
keyboard_post_init_user                           .build/obj_massdrop_ctrl_default/quantum/keyboard.o
keyboard_pre_init_kb                              .build/obj_massdrop_ctrl_default/quantum/keyboard.o
keyboard_pre_init_user                            .build/obj_massdrop_ctrl_default/quantum/keyboard.o
keyboard_protocol                                 .build/obj_massdrop_ctrl_default/protocol/arm_atsam/usb/main_usb.o
                                                  .build/obj_massdrop_ctrl_default/protocol/report.o
keyboard_report                                   .build/obj_massdrop_ctrl_default/quantum/action_util.o
                                                  .build/obj_massdrop_ctrl_default/quantum/action.o
keyboard_set_leds                                 .build/obj_massdrop_ctrl_default/quantum/keyboard.o
keyboard_setup                                    .build/obj_massdrop_ctrl_default/quantum/keyboard.o
                                                  .build/obj_massdrop_ctrl_default/protocol/arm_atsam/main_arm_atsam.o
                                                  .build/obj_massdrop_ctrl_default/quantum/main.o
keyboard_task                                     .build/obj_massdrop_ctrl_default/quantum/keyboard.o
                                                  .build/obj_massdrop_ctrl_default/protocol/arm_atsam/main_arm_atsam.o
                                                  .build/obj_massdrop_ctrl_default/quantum/main.o
keycode_config                                    .build/obj_massdrop_ctrl_default/quantum/keycode_config.o
                                                  .build/obj_massdrop_ctrl_default/quantum/keymap_common.o
keymap_config                                     .build/obj_massdrop_ctrl_default/quantum/bootmagic/magic.o
                                                  .build/obj_massdrop_ctrl_default/protocol/arm_atsam/main_arm_atsam.o
                                                  .build/obj_massdrop_ctrl_default/protocol/report.o
                                                  .build/obj_massdrop_ctrl_default/quantum/process_keycode/process_magic.o
                                                  .build/obj_massdrop_ctrl_default/quantum/keycode_config.o
                                                  .build/obj_massdrop_ctrl_default/quantum/action_util.o
                                                  .build/obj_massdrop_ctrl_default/quantum/action.o
keymap_function_id_to_action                      .build/obj_massdrop_ctrl_default/quantum/keymap_common.o
keymap_key_to_keycode                             .build/obj_massdrop_ctrl_default/quantum/keymap_common.o
                                                  .build/obj_massdrop_ctrl_default/quantum/quantum.o
keymaps                                           .build/obj_massdrop_ctrl_default/keyboards/massdrop/ctrl/keymaps/default/keymap.o
                                                  .build/obj_massdrop_ctrl_default/quantum/keymap_common.o
last_encoder_activity_elapsed                     .build/obj_massdrop_ctrl_default/quantum/keyboard.o
last_encoder_activity_time                        .build/obj_massdrop_ctrl_default/quantum/keyboard.o
last_encoder_activity_trigger                     .build/obj_massdrop_ctrl_default/quantum/keyboard.o
last_input_activity_elapsed                       .build/obj_massdrop_ctrl_default/quantum/keyboard.o
last_input_activity_time                          .build/obj_massdrop_ctrl_default/quantum/keyboard.o
last_matrix_activity_elapsed                      .build/obj_massdrop_ctrl_default/quantum/keyboard.o
last_matrix_activity_time                         .build/obj_massdrop_ctrl_default/quantum/keyboard.o
last_matrix_activity_trigger                      .build/obj_massdrop_ctrl_default/quantum/keyboard.o
layer_and                                         .build/obj_massdrop_ctrl_default/quantum/action_layer.o
                                                  .build/obj_massdrop_ctrl_default/quantum/action.o
layer_clear                                       .build/obj_massdrop_ctrl_default/quantum/action_layer.o
                                                  .build/obj_massdrop_ctrl_default/quantum/action.o
layer_debug                                       .build/obj_massdrop_ctrl_default/quantum/action_layer.o
                                                  .build/obj_massdrop_ctrl_default/quantum/action.o
layer_invert                                      .build/obj_massdrop_ctrl_default/quantum/action_layer.o
                                                  .build/obj_massdrop_ctrl_default/quantum/action.o
layer_move                                        .build/obj_massdrop_ctrl_default/quantum/action_layer.o
                                                  .build/obj_massdrop_ctrl_default/quantum/action.o
layer_off                                         .build/obj_massdrop_ctrl_default/quantum/action_layer.o
                                                  .build/obj_massdrop_ctrl_default/quantum/action_util.o
                                                  .build/obj_massdrop_ctrl_default/quantum/action.o
layer_on                                          .build/obj_massdrop_ctrl_default/quantum/action_layer.o
                                                  .build/obj_massdrop_ctrl_default/quantum/action_util.o
                                                  .build/obj_massdrop_ctrl_default/quantum/action.o
layer_or                                          .build/obj_massdrop_ctrl_default/quantum/action_layer.o
                                                  .build/obj_massdrop_ctrl_default/quantum/action.o
layer_state                                       .build/obj_massdrop_ctrl_default/quantum/action_layer.o
                                                  .build/obj_massdrop_ctrl_default/quantum/bootmagic/magic.o
                                                  .build/obj_massdrop_ctrl_default/quantum/quantum.o
layer_state_cmp                                   .build/obj_massdrop_ctrl_default/quantum/action_layer.o
layer_state_is                                    .build/obj_massdrop_ctrl_default/quantum/action_layer.o
layer_state_set                                   .build/obj_massdrop_ctrl_default/quantum/action_layer.o
                                                  .build/obj_massdrop_ctrl_default/quantum/action.o
                                                  .build/obj_massdrop_ctrl_default/quantum/quantum.o
layer_state_set_kb                                .build/obj_massdrop_ctrl_default/quantum/action_layer.o
                                                  .build/obj_massdrop_ctrl_default/quantum/bootmagic/magic.o
layer_state_set_user                              .build/obj_massdrop_ctrl_default/quantum/action_layer.o
layer_switch_get_action                           .build/obj_massdrop_ctrl_default/quantum/action_layer.o
                                                  .build/obj_massdrop_ctrl_default/quantum/action_tapping.o
                                                  .build/obj_massdrop_ctrl_default/quantum/action.o
layer_switch_get_layer                            .build/obj_massdrop_ctrl_default/quantum/action_layer.o
                                                  .build/obj_massdrop_ctrl_default/quantum/quantum.o
layer_xor                                         .build/obj_massdrop_ctrl_default/quantum/action_layer.o
                                                  .build/obj_massdrop_ctrl_default/quantum/action.o
led_buffer                                        .build/obj_massdrop_ctrl_default/protocol/arm_atsam/md_rgb_matrix.o
led_init_ports                                    .build/obj_massdrop_ctrl_default/quantum/led.o
                                                  .build/obj_massdrop_ctrl_default/quantum/quantum.o
led_map                                           .build/obj_massdrop_ctrl_default/protocol/arm_atsam/md_rgb_matrix.o
led_set                                           .build/obj_massdrop_ctrl_default/quantum/led.o
                                                  .build/obj_massdrop_ctrl_default/quantum/keyboard.o
                                                  .build/obj_massdrop_ctrl_default/quantum/action.o
                                                  .build/obj_massdrop_ctrl_default/quantum/quantum.o
led_set_kb                                        .build/obj_massdrop_ctrl_default/quantum/led.o
led_set_user                                      .build/obj_massdrop_ctrl_default/quantum/led.o
led_states                                        .build/obj_massdrop_ctrl_default/protocol/arm_atsam/main_arm_atsam.o
led_update_kb                                     .build/obj_massdrop_ctrl_default/quantum/led.o
led_update_user                                   .build/obj_massdrop_ctrl_default/quantum/led.o
magic                                             .build/obj_massdrop_ctrl_default/quantum/bootmagic/magic.o
                                                  .build/obj_massdrop_ctrl_default/quantum/quantum.o
main                                              .build/obj_massdrop_ctrl_default/protocol/arm_atsam/main_arm_atsam.o
                                                  .build/obj_massdrop_ctrl_default/quantum/main.o
                                                  .build/obj_massdrop_ctrl_default/protocol/arm_atsam/startup.o
                                                  /opt/homebrew/Cellar/arm-gcc-bin@8/8-2019-q3-update_1/bin/../lib/gcc/arm-none-eabi/8.3.1/../../../../arm-none-eabi/lib/thumb/v7e-m+fp/hard/rdimon-crt0.o
main_b_exk_enable                                 .build/obj_massdrop_ctrl_default/protocol/arm_atsam/usb/main_usb.o
                                                  .build/obj_massdrop_ctrl_default/protocol/arm_atsam/usb/udi_hid_kbd.o
main_b_kbd_enable                                 .build/obj_massdrop_ctrl_default/protocol/arm_atsam/usb/main_usb.o
                                                  .build/obj_massdrop_ctrl_default/protocol/arm_atsam/usb/udi_hid_kbd.o
main_b_nkro_enable                                .build/obj_massdrop_ctrl_default/protocol/arm_atsam/usb/main_usb.o
                                                  .build/obj_massdrop_ctrl_default/protocol/arm_atsam/usb/udi_hid_kbd.o
main_exk_disable                                  .build/obj_massdrop_ctrl_default/protocol/arm_atsam/usb/main_usb.o
                                                  .build/obj_massdrop_ctrl_default/protocol/arm_atsam/usb/udi_hid_kbd.o
main_exk_enable                                   .build/obj_massdrop_ctrl_default/protocol/arm_atsam/usb/main_usb.o
                                                  .build/obj_massdrop_ctrl_default/protocol/arm_atsam/usb/udi_hid_kbd.o
main_kbd_disable                                  .build/obj_massdrop_ctrl_default/protocol/arm_atsam/usb/main_usb.o
                                                  .build/obj_massdrop_ctrl_default/protocol/arm_atsam/usb/udi_hid_kbd.o
main_kbd_enable                                   .build/obj_massdrop_ctrl_default/protocol/arm_atsam/usb/main_usb.o
                                                  .build/obj_massdrop_ctrl_default/protocol/arm_atsam/usb/udi_hid_kbd.o
main_nkro_disable                                 .build/obj_massdrop_ctrl_default/protocol/arm_atsam/usb/main_usb.o
                                                  .build/obj_massdrop_ctrl_default/protocol/arm_atsam/usb/udi_hid_kbd.o
main_nkro_enable                                  .build/obj_massdrop_ctrl_default/protocol/arm_atsam/usb/main_usb.o
                                                  .build/obj_massdrop_ctrl_default/protocol/arm_atsam/usb/udi_hid_kbd.o
main_remotewakeup_disable                         .build/obj_massdrop_ctrl_default/protocol/arm_atsam/usb/main_usb.o
                                                  .build/obj_massdrop_ctrl_default/protocol/arm_atsam/usb/udc.o
main_remotewakeup_enable                          .build/obj_massdrop_ctrl_default/protocol/arm_atsam/usb/main_usb.o
                                                  .build/obj_massdrop_ctrl_default/protocol/arm_atsam/usb/udc.o
main_resume_action                                .build/obj_massdrop_ctrl_default/protocol/arm_atsam/usb/main_usb.o
                                                  .build/obj_massdrop_ctrl_default/protocol/arm_atsam/usb/usb_device_udd.o
main_sof_action                                   .build/obj_massdrop_ctrl_default/protocol/arm_atsam/usb/main_usb.o
                                                  .build/obj_massdrop_ctrl_default/protocol/arm_atsam/usb/usb_device_udd.o
main_subtask_power_check                          .build/obj_massdrop_ctrl_default/protocol/arm_atsam/main_arm_atsam.o
main_subtask_usb_extra_device                     .build/obj_massdrop_ctrl_default/protocol/arm_atsam/main_arm_atsam.o
main_subtask_usb_state                            .build/obj_massdrop_ctrl_default/protocol/arm_atsam/main_arm_atsam.o
main_subtasks                                     .build/obj_massdrop_ctrl_default/protocol/arm_atsam/main_arm_atsam.o
main_suspend_action                               .build/obj_massdrop_ctrl_default/protocol/arm_atsam/usb/main_usb.o
                                                  .build/obj_massdrop_ctrl_default/protocol/arm_atsam/usb/usb_device_udd.o
matrix                                            .build/obj_massdrop_ctrl_default/quantum/matrix_common.o
                                                  .build/obj_massdrop_ctrl_default/quantum/matrix.o
matrix_cols                                       .build/obj_massdrop_ctrl_default/quantum/matrix_common.o
matrix_get_row                                    .build/obj_massdrop_ctrl_default/quantum/matrix_common.o
                                                  .build/obj_massdrop_ctrl_default/platforms/arm_atsam/suspend.o
                                                  .build/obj_massdrop_ctrl_default/quantum/keyboard.o
matrix_init                                       .build/obj_massdrop_ctrl_default/quantum/matrix.o
                                                  .build/obj_massdrop_ctrl_default/quantum/matrix_common.o
                                                  .build/obj_massdrop_ctrl_default/protocol/arm_atsam/main_arm_atsam.o
                                                  .build/obj_massdrop_ctrl_default/quantum/keyboard.o
matrix_init_custom                                .build/obj_massdrop_ctrl_default/quantum/matrix_common.o
matrix_init_kb                                    .build/obj_massdrop_ctrl_default/quantum/matrix_common.o
                                                  .build/obj_massdrop_ctrl_default/quantum/quantum.o
matrix_init_pins                                  .build/obj_massdrop_ctrl_default/quantum/matrix.o
matrix_init_quantum                               .build/obj_massdrop_ctrl_default/quantum/quantum.o
                                                  .build/obj_massdrop_ctrl_default/quantum/matrix.o
                                                  .build/obj_massdrop_ctrl_default/quantum/matrix_common.o
matrix_init_user                                  .build/obj_massdrop_ctrl_default/quantum/matrix_common.o
matrix_io_delay                                   .build/obj_massdrop_ctrl_default/quantum/matrix_common.o
                                                  .build/obj_massdrop_ctrl_default/keyboards/massdrop/ctrl/ctrl.o
matrix_is_modified                                .build/obj_massdrop_ctrl_default/quantum/matrix_common.o
matrix_is_on                                      .build/obj_massdrop_ctrl_default/quantum/matrix_common.o
matrix_key_count                                  .build/obj_massdrop_ctrl_default/quantum/matrix_common.o
matrix_output_select_delay                        .build/obj_massdrop_ctrl_default/keyboards/massdrop/ctrl/ctrl.o
                                                  .build/obj_massdrop_ctrl_default/quantum/matrix.o
matrix_output_unselect_delay                      .build/obj_massdrop_ctrl_default/keyboards/massdrop/ctrl/ctrl.o
                                                  .build/obj_massdrop_ctrl_default/quantum/matrix.o
matrix_power_down                                 .build/obj_massdrop_ctrl_default/platforms/arm_atsam/suspend.o
matrix_power_up                                   .build/obj_massdrop_ctrl_default/platforms/arm_atsam/suspend.o
matrix_print                                      .build/obj_massdrop_ctrl_default/quantum/matrix_common.o
                                                  .build/obj_massdrop_ctrl_default/quantum/keyboard.o
matrix_read_cols_on_row                           .build/obj_massdrop_ctrl_default/quantum/matrix.o
matrix_rows                                       .build/obj_massdrop_ctrl_default/quantum/matrix_common.o
matrix_scan                                       .build/obj_massdrop_ctrl_default/quantum/matrix.o
                                                  .build/obj_massdrop_ctrl_default/quantum/matrix_common.o
                                                  .build/obj_massdrop_ctrl_default/platforms/arm_atsam/suspend.o
                                                  .build/obj_massdrop_ctrl_default/quantum/keyboard.o
matrix_scan_custom                                .build/obj_massdrop_ctrl_default/quantum/matrix_common.o
matrix_scan_kb                                    .build/obj_massdrop_ctrl_default/quantum/matrix_common.o
                                                  .build/obj_massdrop_ctrl_default/quantum/quantum.o
matrix_scan_quantum                               .build/obj_massdrop_ctrl_default/quantum/quantum.o
                                                  .build/obj_massdrop_ctrl_default/quantum/matrix.o
                                                  .build/obj_massdrop_ctrl_default/quantum/matrix_common.o
matrix_scan_user                                  .build/obj_massdrop_ctrl_default/quantum/matrix_common.o
matrix_setup                                      .build/obj_massdrop_ctrl_default/quantum/keyboard.o
md_rgb_matrix_indicators_advanced                 .build/obj_massdrop_ctrl_default/protocol/arm_atsam/md_rgb_matrix.o
                                                  .build/obj_massdrop_ctrl_default/config_led.o
md_rgb_matrix_prepare                             .build/obj_massdrop_ctrl_default/protocol/arm_atsam/md_rgb_matrix.o
memcmp                                            /opt/homebrew/Cellar/arm-gcc-bin@8/8-2019-q3-update_1/bin/../lib/gcc/arm-none-eabi/8.3.1/../../../../arm-none-eabi/lib/thumb/v7e-m+fp/hard/libg.a(lib_a-memcmp.o)
                                                  .build/obj_massdrop_ctrl_default/quantum/matrix.o
memcpy                                            /opt/homebrew/Cellar/arm-gcc-bin@8/8-2019-q3-update_1/bin/../lib/gcc/arm-none-eabi/8.3.1/../../../../arm-none-eabi/lib/thumb/v7e-m+fp/hard/libg.a(lib_a-memcpy.o)
                                                  .build/obj_massdrop_ctrl_default/protocol/arm_atsam/usb/usb_util.o
                                                  .build/obj_massdrop_ctrl_default/protocol/arm_atsam/usb/usb_device_udd.o
                                                  .build/obj_massdrop_ctrl_default/protocol/arm_atsam/i2c_master.o
                                                  .build/obj_massdrop_ctrl_default/quantum/rgb_matrix/rgb_matrix.o
memset                                            /opt/homebrew/Cellar/arm-gcc-bin@8/8-2019-q3-update_1/bin/../lib/gcc/arm-none-eabi/8.3.1/../../../../arm-none-eabi/lib/thumb/v7e-m+fp/hard/libg.a(lib_a-memset.o)
                                                  /opt/homebrew/Cellar/arm-gcc-bin@8/8-2019-q3-update_1/bin/../lib/gcc/arm-none-eabi/8.3.1/../../../../arm-none-eabi/lib/thumb/v7e-m+fp/hard/libc.a(lib_a-findfp.o)
                                                  /opt/homebrew/Cellar/arm-gcc-bin@8/8-2019-q3-update_1/bin/../lib/gcc/arm-none-eabi/8.3.1/../../../../arm-none-eabi/lib/thumb/v7e-m+fp/hard/librdimon.a(rdimon-syscalls.o)
                                                  .build/obj_massdrop_ctrl_default/drivers/usb2422.o
                                                  .build/obj_massdrop_ctrl_default/protocol/arm_atsam/usb/usb_util.o
                                                  .build/obj_massdrop_ctrl_default/protocol/arm_atsam/usb/usb.o
                                                  .build/obj_massdrop_ctrl_default/protocol/arm_atsam/usb/udi_hid_kbd.o
                                                  .build/obj_massdrop_ctrl_default/protocol/arm_atsam/md_rgb_matrix.o
                                                  .build/obj_massdrop_ctrl_default/protocol/arm_atsam/i2c_master.o
                                                  .build/obj_massdrop_ctrl_default/protocol/arm_atsam/clks.o
                                                  .build/obj_massdrop_ctrl_default/protocol/report.o
                                                  /opt/homebrew/Cellar/arm-gcc-bin@8/8-2019-q3-update_1/bin/../lib/gcc/arm-none-eabi/8.3.1/../../../../arm-none-eabi/lib/thumb/v7e-m+fp/hard/rdimon-crt0.o
mod_config                                        .build/obj_massdrop_ctrl_default/quantum/keycode_config.o
                                                  .build/obj_massdrop_ctrl_default/quantum/keymap_common.o
ms_clk                                            .build/obj_massdrop_ctrl_default/protocol/arm_atsam/clks.o
                                                  .build/obj_massdrop_ctrl_default/platforms/arm_atsam/timer.o
notify_usb_device_state_change_kb                 .build/obj_massdrop_ctrl_default/protocol/usb_device_state.o
notify_usb_device_state_change_user               .build/obj_massdrop_ctrl_default/protocol/usb_device_state.o
oneshot_disable                                   .build/obj_massdrop_ctrl_default/quantum/action_util.o
                                                  .build/obj_massdrop_ctrl_default/quantum/quantum.o
oneshot_enable                                    .build/obj_massdrop_ctrl_default/quantum/action_util.o
                                                  .build/obj_massdrop_ctrl_default/quantum/quantum.o
oneshot_layer_changed_kb                          .build/obj_massdrop_ctrl_default/quantum/action_util.o
oneshot_layer_changed_user                        .build/obj_massdrop_ctrl_default/quantum/action_util.o
oneshot_locked_mods_changed_kb                    .build/obj_massdrop_ctrl_default/quantum/action_util.o
oneshot_locked_mods_changed_user                  .build/obj_massdrop_ctrl_default/quantum/action_util.o
oneshot_mods_changed_kb                           .build/obj_massdrop_ctrl_default/quantum/action_util.o
oneshot_mods_changed_user                         .build/obj_massdrop_ctrl_default/quantum/action_util.o
oneshot_set                                       .build/obj_massdrop_ctrl_default/quantum/action_util.o
oneshot_toggle                                    .build/obj_massdrop_ctrl_default/quantum/action_util.o
                                                  .build/obj_massdrop_ctrl_default/quantum/quantum.o
peek_matrix                                       .build/obj_massdrop_ctrl_default/quantum/matrix_common.o
perform_space_cadet                               .build/obj_massdrop_ctrl_default/quantum/process_keycode/process_space_cadet.o
platform_setup                                    .build/obj_massdrop_ctrl_default/platforms/arm_atsam/platform.o
                                                  .build/obj_massdrop_ctrl_default/quantum/main.o
post_process_record_kb                            .build/obj_massdrop_ctrl_default/quantum/quantum.o
post_process_record_quantum                       .build/obj_massdrop_ctrl_default/quantum/quantum.o
post_process_record_user                          .build/obj_massdrop_ctrl_default/quantum/quantum.o
pre_process_record_quantum                        .build/obj_massdrop_ctrl_default/quantum/quantum.o
print_set_sendchar                                .build/obj_massdrop_ctrl_default/quantum/logging/print.o
                                                  .build/obj_massdrop_ctrl_default/quantum/keyboard.o
printbuf                                          .build/obj_massdrop_ctrl_default/protocol/arm_atsam/usb/udi_cdc.o
printf_                                           .build/obj_massdrop_ctrl_default/lib/printf/printf.o
process_action                                    .build/obj_massdrop_ctrl_default/quantum/action.o
process_action_kb                                 .build/obj_massdrop_ctrl_default/quantum/quantum.o
process_grave_esc                                 .build/obj_massdrop_ctrl_default/quantum/process_keycode/process_grave_esc.o
                                                  .build/obj_massdrop_ctrl_default/quantum/quantum.o
process_magic                                     .build/obj_massdrop_ctrl_default/quantum/process_keycode/process_magic.o
                                                  .build/obj_massdrop_ctrl_default/quantum/quantum.o
process_record                                    .build/obj_massdrop_ctrl_default/quantum/action.o
                                                  .build/obj_massdrop_ctrl_default/quantum/action_tapping.o
process_record_handler                            .build/obj_massdrop_ctrl_default/quantum/action.o
process_record_kb                                 .build/obj_massdrop_ctrl_default/quantum/quantum.o
process_record_nocache                            .build/obj_massdrop_ctrl_default/quantum/action.o
process_record_quantum                            .build/obj_massdrop_ctrl_default/quantum/quantum.o
process_record_tap_hint                           .build/obj_massdrop_ctrl_default/quantum/action.o
                                                  .build/obj_massdrop_ctrl_default/quantum/action_tapping.o
process_record_user                               .build/obj_massdrop_ctrl_default/keyboards/massdrop/ctrl/keymaps/default/keymap.o
process_rgb                                       .build/obj_massdrop_ctrl_default/quantum/process_keycode/process_rgb.o
                                                  .build/obj_massdrop_ctrl_default/quantum/quantum.o
process_rgb_matrix                                .build/obj_massdrop_ctrl_default/quantum/rgb_matrix/rgb_matrix.o
                                                  .build/obj_massdrop_ctrl_default/quantum/keyboard.o
process_space_cadet                               .build/obj_massdrop_ctrl_default/quantum/process_keycode/process_space_cadet.o
                                                  .build/obj_massdrop_ctrl_default/quantum/quantum.o
protocol_init                                     .build/obj_massdrop_ctrl_default/quantum/main.o
protocol_post_init                                .build/obj_massdrop_ctrl_default/quantum/main.o
protocol_post_task                                .build/obj_massdrop_ctrl_default/quantum/main.o
protocol_pre_init                                 .build/obj_massdrop_ctrl_default/quantum/main.o
protocol_pre_task                                 .build/obj_massdrop_ctrl_default/quantum/main.o
protocol_setup                                    .build/obj_massdrop_ctrl_default/quantum/main.o
protocol_task                                     .build/obj_massdrop_ctrl_default/quantum/main.o
rand                                              /opt/homebrew/Cellar/arm-gcc-bin@8/8-2019-q3-update_1/bin/../lib/gcc/arm-none-eabi/8.3.1/../../../../arm-none-eabi/lib/thumb/v7e-m+fp/hard/libg.a(lib_a-rand.o)
                                                  .build/obj_massdrop_ctrl_default/quantum/rgb_matrix/rgb_matrix.o
                                                  .build/obj_massdrop_ctrl_default/quantum/send_string.o
rand16seed                                        .build/obj_massdrop_ctrl_default/lib/lib8tion/lib8tion.o
                                                  .build/obj_massdrop_ctrl_default/quantum/rgb_matrix/rgb_matrix.o
raw_matrix                                        .build/obj_massdrop_ctrl_default/quantum/matrix_common.o
                                                  .build/obj_massdrop_ctrl_default/quantum/matrix.o
read_source_layers_cache                          .build/obj_massdrop_ctrl_default/quantum/action_layer.o
                                                  .build/obj_massdrop_ctrl_default/quantum/quantum.o
register_code                                     .build/obj_massdrop_ctrl_default/quantum/action.o
                                                  .build/obj_massdrop_ctrl_default/quantum/action_macro.o
                                                  .build/obj_massdrop_ctrl_default/quantum/send_string.o
                                                  .build/obj_massdrop_ctrl_default/quantum/quantum.o
register_code16                                   .build/obj_massdrop_ctrl_default/quantum/quantum.o
register_mods                                     .build/obj_massdrop_ctrl_default/quantum/action.o
                                                  .build/obj_massdrop_ctrl_default/quantum/process_keycode/process_space_cadet.o
                                                  .build/obj_massdrop_ctrl_default/quantum/quantum.o
register_weak_mods                                .build/obj_massdrop_ctrl_default/quantum/action.o
                                                  .build/obj_massdrop_ctrl_default/quantum/quantum.o
reset_keyboard                                    .build/obj_massdrop_ctrl_default/quantum/quantum.o
                                                  .build/obj_massdrop_ctrl_default/keyboards/massdrop/ctrl/keymaps/default/keymap.o
reset_oneshot_layer                               .build/obj_massdrop_ctrl_default/quantum/action_util.o
rgb_matrix_config                                 .build/obj_massdrop_ctrl_default/quantum/rgb_matrix/rgb_matrix.o
                                                  .build/obj_massdrop_ctrl_default/protocol/arm_atsam/md_rgb_matrix.o
rgb_matrix_decrease_hue                           .build/obj_massdrop_ctrl_default/quantum/rgb_matrix/rgb_matrix.o
                                                  .build/obj_massdrop_ctrl_default/quantum/process_keycode/process_rgb.o
rgb_matrix_decrease_hue_helper                    .build/obj_massdrop_ctrl_default/quantum/rgb_matrix/rgb_matrix.o
rgb_matrix_decrease_hue_noeeprom                  .build/obj_massdrop_ctrl_default/quantum/rgb_matrix/rgb_matrix.o
rgb_matrix_decrease_sat                           .build/obj_massdrop_ctrl_default/quantum/rgb_matrix/rgb_matrix.o
                                                  .build/obj_massdrop_ctrl_default/quantum/process_keycode/process_rgb.o
rgb_matrix_decrease_sat_helper                    .build/obj_massdrop_ctrl_default/quantum/rgb_matrix/rgb_matrix.o
rgb_matrix_decrease_sat_noeeprom                  .build/obj_massdrop_ctrl_default/quantum/rgb_matrix/rgb_matrix.o
rgb_matrix_decrease_speed                         .build/obj_massdrop_ctrl_default/quantum/rgb_matrix/rgb_matrix.o
                                                  .build/obj_massdrop_ctrl_default/quantum/process_keycode/process_rgb.o
rgb_matrix_decrease_speed_helper                  .build/obj_massdrop_ctrl_default/quantum/rgb_matrix/rgb_matrix.o
rgb_matrix_decrease_speed_noeeprom                .build/obj_massdrop_ctrl_default/quantum/rgb_matrix/rgb_matrix.o
rgb_matrix_decrease_val                           .build/obj_massdrop_ctrl_default/quantum/rgb_matrix/rgb_matrix.o
                                                  .build/obj_massdrop_ctrl_default/quantum/process_keycode/process_rgb.o
rgb_matrix_decrease_val_helper                    .build/obj_massdrop_ctrl_default/quantum/rgb_matrix/rgb_matrix.o
rgb_matrix_decrease_val_noeeprom                  .build/obj_massdrop_ctrl_default/quantum/rgb_matrix/rgb_matrix.o
rgb_matrix_disable                                .build/obj_massdrop_ctrl_default/quantum/rgb_matrix/rgb_matrix.o
rgb_matrix_disable_noeeprom                       .build/obj_massdrop_ctrl_default/quantum/rgb_matrix/rgb_matrix.o
                                                  .build/obj_massdrop_ctrl_default/keyboards/massdrop/ctrl/keymaps/default/keymap.o
rgb_matrix_driver                                 .build/obj_massdrop_ctrl_default/protocol/arm_atsam/md_rgb_matrix.o
                                                  .build/obj_massdrop_ctrl_default/quantum/rgb_matrix/rgb_matrix.o
rgb_matrix_enable                                 .build/obj_massdrop_ctrl_default/quantum/rgb_matrix/rgb_matrix.o
rgb_matrix_enable_noeeprom                        .build/obj_massdrop_ctrl_default/quantum/rgb_matrix/rgb_matrix.o
                                                  .build/obj_massdrop_ctrl_default/keyboards/massdrop/ctrl/keymaps/default/keymap.o
rgb_matrix_get_flags                              .build/obj_massdrop_ctrl_default/quantum/rgb_matrix/rgb_matrix.o
                                                  .build/obj_massdrop_ctrl_default/protocol/arm_atsam/md_rgb_matrix.o
                                                  .build/obj_massdrop_ctrl_default/keyboards/massdrop/ctrl/keymaps/default/keymap.o
rgb_matrix_get_hsv                                .build/obj_massdrop_ctrl_default/quantum/rgb_matrix/rgb_matrix.o
rgb_matrix_get_hue                                .build/obj_massdrop_ctrl_default/quantum/rgb_matrix/rgb_matrix.o
rgb_matrix_get_mode                               .build/obj_massdrop_ctrl_default/quantum/rgb_matrix/rgb_matrix.o
rgb_matrix_get_sat                                .build/obj_massdrop_ctrl_default/quantum/rgb_matrix/rgb_matrix.o
rgb_matrix_get_speed                              .build/obj_massdrop_ctrl_default/quantum/rgb_matrix/rgb_matrix.o
rgb_matrix_get_suspend_state                      .build/obj_massdrop_ctrl_default/quantum/rgb_matrix/rgb_matrix.o
rgb_matrix_get_val                                .build/obj_massdrop_ctrl_default/quantum/rgb_matrix/rgb_matrix.o
rgb_matrix_hsv_to_rgb                             .build/obj_massdrop_ctrl_default/quantum/rgb_matrix/rgb_matrix.o
rgb_matrix_increase_hue                           .build/obj_massdrop_ctrl_default/quantum/rgb_matrix/rgb_matrix.o
                                                  .build/obj_massdrop_ctrl_default/quantum/process_keycode/process_rgb.o
rgb_matrix_increase_hue_helper                    .build/obj_massdrop_ctrl_default/quantum/rgb_matrix/rgb_matrix.o
rgb_matrix_increase_hue_noeeprom                  .build/obj_massdrop_ctrl_default/quantum/rgb_matrix/rgb_matrix.o
rgb_matrix_increase_sat                           .build/obj_massdrop_ctrl_default/quantum/rgb_matrix/rgb_matrix.o
                                                  .build/obj_massdrop_ctrl_default/quantum/process_keycode/process_rgb.o
rgb_matrix_increase_sat_helper                    .build/obj_massdrop_ctrl_default/quantum/rgb_matrix/rgb_matrix.o
rgb_matrix_increase_sat_noeeprom                  .build/obj_massdrop_ctrl_default/quantum/rgb_matrix/rgb_matrix.o
rgb_matrix_increase_speed                         .build/obj_massdrop_ctrl_default/quantum/rgb_matrix/rgb_matrix.o
                                                  .build/obj_massdrop_ctrl_default/quantum/process_keycode/process_rgb.o
rgb_matrix_increase_speed_helper                  .build/obj_massdrop_ctrl_default/quantum/rgb_matrix/rgb_matrix.o
rgb_matrix_increase_speed_noeeprom                .build/obj_massdrop_ctrl_default/quantum/rgb_matrix/rgb_matrix.o
rgb_matrix_increase_val                           .build/obj_massdrop_ctrl_default/quantum/rgb_matrix/rgb_matrix.o
                                                  .build/obj_massdrop_ctrl_default/quantum/process_keycode/process_rgb.o
rgb_matrix_increase_val_helper                    .build/obj_massdrop_ctrl_default/quantum/rgb_matrix/rgb_matrix.o
rgb_matrix_increase_val_noeeprom                  .build/obj_massdrop_ctrl_default/quantum/rgb_matrix/rgb_matrix.o
rgb_matrix_indicators                             .build/obj_massdrop_ctrl_default/quantum/rgb_matrix/rgb_matrix.o
rgb_matrix_indicators_advanced                    .build/obj_massdrop_ctrl_default/quantum/rgb_matrix/rgb_matrix.o
rgb_matrix_indicators_advanced_kb                 .build/obj_massdrop_ctrl_default/config_led.o
rgb_matrix_indicators_advanced_user               .build/obj_massdrop_ctrl_default/quantum/rgb_matrix/rgb_matrix.o
rgb_matrix_indicators_kb                          .build/obj_massdrop_ctrl_default/quantum/rgb_matrix/rgb_matrix.o
rgb_matrix_indicators_user                        .build/obj_massdrop_ctrl_default/quantum/rgb_matrix/rgb_matrix.o
rgb_matrix_init                                   .build/obj_massdrop_ctrl_default/quantum/rgb_matrix/rgb_matrix.o
                                                  .build/obj_massdrop_ctrl_default/quantum/quantum.o
rgb_matrix_is_enabled                             .build/obj_massdrop_ctrl_default/quantum/rgb_matrix/rgb_matrix.o
rgb_matrix_map_row_column_to_led                  .build/obj_massdrop_ctrl_default/quantum/rgb_matrix/rgb_matrix.o
rgb_matrix_map_row_column_to_led_kb               .build/obj_massdrop_ctrl_default/quantum/rgb_matrix/rgb_matrix.o
rgb_matrix_mode                                   .build/obj_massdrop_ctrl_default/quantum/rgb_matrix/rgb_matrix.o
                                                  .build/obj_massdrop_ctrl_default/quantum/process_keycode/process_rgb.o
rgb_matrix_mode_eeprom_helper                     .build/obj_massdrop_ctrl_default/quantum/rgb_matrix/rgb_matrix.o
rgb_matrix_mode_noeeprom                          .build/obj_massdrop_ctrl_default/quantum/rgb_matrix/rgb_matrix.o
rgb_matrix_set_color                              .build/obj_massdrop_ctrl_default/quantum/rgb_matrix/rgb_matrix.o
rgb_matrix_set_color_all                          .build/obj_massdrop_ctrl_default/quantum/rgb_matrix/rgb_matrix.o
                                                  .build/obj_massdrop_ctrl_default/keyboards/massdrop/ctrl/keymaps/default/keymap.o
rgb_matrix_set_flags                              .build/obj_massdrop_ctrl_default/quantum/rgb_matrix/rgb_matrix.o
                                                  .build/obj_massdrop_ctrl_default/keyboards/massdrop/ctrl/keymaps/default/keymap.o
rgb_matrix_set_speed                              .build/obj_massdrop_ctrl_default/quantum/rgb_matrix/rgb_matrix.o
rgb_matrix_set_speed_eeprom_helper                .build/obj_massdrop_ctrl_default/quantum/rgb_matrix/rgb_matrix.o
rgb_matrix_set_speed_noeeprom                     .build/obj_massdrop_ctrl_default/quantum/rgb_matrix/rgb_matrix.o
rgb_matrix_set_suspend_state                      .build/obj_massdrop_ctrl_default/quantum/rgb_matrix/rgb_matrix.o
                                                  .build/obj_massdrop_ctrl_default/quantum/quantum.o
rgb_matrix_sethsv                                 .build/obj_massdrop_ctrl_default/quantum/rgb_matrix/rgb_matrix.o
rgb_matrix_sethsv_eeprom_helper                   .build/obj_massdrop_ctrl_default/quantum/rgb_matrix/rgb_matrix.o
rgb_matrix_sethsv_noeeprom                        .build/obj_massdrop_ctrl_default/quantum/rgb_matrix/rgb_matrix.o
rgb_matrix_step                                   .build/obj_massdrop_ctrl_default/quantum/rgb_matrix/rgb_matrix.o
                                                  .build/obj_massdrop_ctrl_default/quantum/process_keycode/process_rgb.o
rgb_matrix_step_helper                            .build/obj_massdrop_ctrl_default/quantum/rgb_matrix/rgb_matrix.o
rgb_matrix_step_noeeprom                          .build/obj_massdrop_ctrl_default/quantum/rgb_matrix/rgb_matrix.o
rgb_matrix_step_reverse                           .build/obj_massdrop_ctrl_default/quantum/rgb_matrix/rgb_matrix.o
                                                  .build/obj_massdrop_ctrl_default/quantum/process_keycode/process_rgb.o
rgb_matrix_step_reverse_helper                    .build/obj_massdrop_ctrl_default/quantum/rgb_matrix/rgb_matrix.o
rgb_matrix_step_reverse_noeeprom                  .build/obj_massdrop_ctrl_default/quantum/rgb_matrix/rgb_matrix.o
rgb_matrix_task                                   .build/obj_massdrop_ctrl_default/quantum/rgb_matrix/rgb_matrix.o
                                                  .build/obj_massdrop_ctrl_default/quantum/keyboard.o
                                                  .build/obj_massdrop_ctrl_default/quantum/quantum.o
rgb_matrix_test                                   .build/obj_massdrop_ctrl_default/quantum/rgb_matrix/rgb_matrix.o
rgb_matrix_toggle                                 .build/obj_massdrop_ctrl_default/quantum/rgb_matrix/rgb_matrix.o
                                                  .build/obj_massdrop_ctrl_default/quantum/process_keycode/process_rgb.o
rgb_matrix_toggle_eeprom_helper                   .build/obj_massdrop_ctrl_default/quantum/rgb_matrix/rgb_matrix.o
rgb_matrix_toggle_noeeprom                        .build/obj_massdrop_ctrl_default/quantum/rgb_matrix/rgb_matrix.o
rgb_matrix_update_pwm_buffers                     .build/obj_massdrop_ctrl_default/quantum/rgb_matrix/rgb_matrix.o
send_byte                                         .build/obj_massdrop_ctrl_default/quantum/send_string.o
send_char                                         .build/obj_massdrop_ctrl_default/quantum/send_string.o
send_consumer                                     .build/obj_massdrop_ctrl_default/protocol/arm_atsam/main_arm_atsam.o
send_digitizer                                    .build/obj_massdrop_ctrl_default/protocol/host.o
send_dword                                        .build/obj_massdrop_ctrl_default/quantum/send_string.o
send_extra                                        .build/obj_massdrop_ctrl_default/protocol/arm_atsam/main_arm_atsam.o
send_keyboard                                     .build/obj_massdrop_ctrl_default/protocol/arm_atsam/main_arm_atsam.o
send_keyboard_report                              .build/obj_massdrop_ctrl_default/quantum/action_util.o
                                                  .build/obj_massdrop_ctrl_default/quantum/process_keycode/process_grave_esc.o
                                                  .build/obj_massdrop_ctrl_default/quantum/action_macro.o
                                                  .build/obj_massdrop_ctrl_default/quantum/action.o
send_mouse                                        .build/obj_massdrop_ctrl_default/protocol/arm_atsam/main_arm_atsam.o
send_nibble                                       .build/obj_massdrop_ctrl_default/quantum/send_string.o
send_string                                       .build/obj_massdrop_ctrl_default/quantum/send_string.o
send_string_P                                     .build/obj_massdrop_ctrl_default/quantum/send_string.o
send_string_with_delay                            .build/obj_massdrop_ctrl_default/quantum/send_string.o
send_string_with_delay_P                          .build/obj_massdrop_ctrl_default/quantum/send_string.o
send_system                                       .build/obj_massdrop_ctrl_default/protocol/arm_atsam/main_arm_atsam.o
send_word                                         .build/obj_massdrop_ctrl_default/quantum/send_string.o
sendchar                                          .build/obj_massdrop_ctrl_default/quantum/logging/sendchar.o
                                                  .build/obj_massdrop_ctrl_default/quantum/keyboard.o
sercom_apbbase                                    .build/obj_massdrop_ctrl_default/protocol/arm_atsam/clks.o
sercom_pchan                                      .build/obj_massdrop_ctrl_default/protocol/arm_atsam/clks.o
set_macro_mods                                    .build/obj_massdrop_ctrl_default/quantum/action_util.o
set_mods                                          .build/obj_massdrop_ctrl_default/quantum/action_util.o
set_oneshot_layer                                 .build/obj_massdrop_ctrl_default/quantum/action_util.o
                                                  .build/obj_massdrop_ctrl_default/quantum/action.o
set_oneshot_locked_mods                           .build/obj_massdrop_ctrl_default/quantum/action_util.o
set_oneshot_mods                                  .build/obj_massdrop_ctrl_default/quantum/action_util.o
                                                  .build/obj_massdrop_ctrl_default/quantum/action.o
set_single_persistent_default_layer               .build/obj_massdrop_ctrl_default/quantum/quantum.o
set_time                                          .build/obj_massdrop_ctrl_default/platforms/arm_atsam/timer.o
set_weak_mods                                     .build/obj_massdrop_ctrl_default/quantum/action_util.o
shift_disable                                     .build/obj_massdrop_ctrl_default/protocol/arm_atsam/shift_register.o
shift_enable                                      .build/obj_massdrop_ctrl_default/protocol/arm_atsam/shift_register.o
shift_init                                        .build/obj_massdrop_ctrl_default/protocol/arm_atsam/shift_register.o
shift_init_impl                                   .build/obj_massdrop_ctrl_default/protocol/arm_atsam/shift_register.o
shift_out                                         .build/obj_massdrop_ctrl_default/protocol/arm_atsam/shift_register.o
shift_out_impl                                    .build/obj_massdrop_ctrl_default/protocol/arm_atsam/shift_register.o
should_process_keypress                           .build/obj_massdrop_ctrl_default/quantum/keyboard.o
shutdown_user                                     .build/obj_massdrop_ctrl_default/quantum/quantum.o
snprintf_                                         .build/obj_massdrop_ctrl_default/lib/printf/printf.o
source_layers_cache                               .build/obj_massdrop_ctrl_default/quantum/action_layer.o
spi_init                                          .build/obj_massdrop_ctrl_default/protocol/arm_atsam/spi_master.o
                                                  .build/obj_massdrop_ctrl_default/protocol/arm_atsam/shift_register.o
spi_start                                         .build/obj_massdrop_ctrl_default/protocol/arm_atsam/spi_master.o
                                                  .build/obj_massdrop_ctrl_default/protocol/arm_atsam/shift_register.o
spi_stop                                          .build/obj_massdrop_ctrl_default/protocol/arm_atsam/spi_master.o
                                                  .build/obj_massdrop_ctrl_default/protocol/arm_atsam/shift_register.o
spi_transmit                                      .build/obj_massdrop_ctrl_default/protocol/arm_atsam/spi_master.o
                                                  .build/obj_massdrop_ctrl_default/protocol/arm_atsam/shift_register.o
sprintf_                                          .build/obj_massdrop_ctrl_default/lib/printf/printf.o
sr_exp_data                                       .build/obj_massdrop_ctrl_default/protocol/arm_atsam/shift_register.o
                                                  .build/obj_massdrop_ctrl_default/protocol/arm_atsam/usb/usb_hub.o
                                                  .build/obj_massdrop_ctrl_default/protocol/arm_atsam/md_rgb_matrix.o
                                                  .build/obj_massdrop_ctrl_default/protocol/arm_atsam/i2c_master.o
srand                                             /opt/homebrew/Cellar/arm-gcc-bin@8/8-2019-q3-update_1/bin/../lib/gcc/arm-none-eabi/8.3.1/../../../../arm-none-eabi/lib/thumb/v7e-m+fp/hard/libg.a(lib_a-rand.o)
startup_user                                      .build/obj_massdrop_ctrl_default/quantum/quantum.o
store_or_get_action                               .build/obj_massdrop_ctrl_default/quantum/action_layer.o
                                                  .build/obj_massdrop_ctrl_default/quantum/action.o
strlen                                            /opt/homebrew/Cellar/arm-gcc-bin@8/8-2019-q3-update_1/bin/../lib/gcc/arm-none-eabi/8.3.1/../../../../arm-none-eabi/lib/thumb/v7e-m+fp/hard/libc.a(lib_a-strlen.o)
                                                  /opt/homebrew/Cellar/arm-gcc-bin@8/8-2019-q3-update_1/bin/../lib/gcc/arm-none-eabi/8.3.1/../../../../arm-none-eabi/lib/thumb/v7e-m+fp/hard/librdimon.a(rdimon-syscalls.o)
suspend_idle                                      .build/obj_massdrop_ctrl_default/platforms/arm_atsam/suspend.o
suspend_power_down                                .build/obj_massdrop_ctrl_default/platforms/arm_atsam/suspend.o
                                                  .build/obj_massdrop_ctrl_default/protocol/arm_atsam/main_arm_atsam.o
suspend_power_down_kb                             .build/obj_massdrop_ctrl_default/quantum/quantum.o
suspend_power_down_quantum                        .build/obj_massdrop_ctrl_default/quantum/quantum.o
suspend_power_down_user                           .build/obj_massdrop_ctrl_default/quantum/quantum.o
suspend_wakeup_condition                          .build/obj_massdrop_ctrl_default/platforms/arm_atsam/suspend.o
                                                  .build/obj_massdrop_ctrl_default/protocol/arm_atsam/main_arm_atsam.o
suspend_wakeup_init                               .build/obj_massdrop_ctrl_default/platforms/arm_atsam/suspend.o
                                                  .build/obj_massdrop_ctrl_default/protocol/arm_atsam/main_arm_atsam.o
suspend_wakeup_init_kb                            .build/obj_massdrop_ctrl_default/quantum/quantum.o
suspend_wakeup_init_quantum                       .build/obj_massdrop_ctrl_default/quantum/quantum.o
suspend_wakeup_init_user                          .build/obj_massdrop_ctrl_default/quantum/quantum.o
switch_events                                     .build/obj_massdrop_ctrl_default/quantum/keyboard.o
system_clks                                       .build/obj_massdrop_ctrl_default/protocol/arm_atsam/clks.o
tap_code                                          .build/obj_massdrop_ctrl_default/quantum/action.o
                                                  .build/obj_massdrop_ctrl_default/quantum/process_keycode/process_space_cadet.o
                                                  .build/obj_massdrop_ctrl_default/quantum/send_string.o
tap_code16                                        .build/obj_massdrop_ctrl_default/quantum/quantum.o
tap_code_delay                                    .build/obj_massdrop_ctrl_default/quantum/action.o
tap_random_base64                                 .build/obj_massdrop_ctrl_default/quantum/send_string.o
timer_clear                                       .build/obj_massdrop_ctrl_default/platforms/arm_atsam/timer.o
timer_elapsed                                     .build/obj_massdrop_ctrl_default/platforms/arm_atsam/timer.o
                                                  .build/obj_massdrop_ctrl_default/quantum/process_keycode/process_space_cadet.o
timer_elapsed32                                   .build/obj_massdrop_ctrl_default/platforms/arm_atsam/timer.o
                                                  .build/obj_massdrop_ctrl_default/quantum/rgb_matrix/rgb_matrix.o
                                                  .build/obj_massdrop_ctrl_default/quantum/debounce/sym_defer_g.o
                                                  .build/obj_massdrop_ctrl_default/quantum/keyboard.o
                                                  .build/obj_massdrop_ctrl_default/keyboards/massdrop/ctrl/keymaps/default/keymap.o
timer_init                                        .build/obj_massdrop_ctrl_default/platforms/arm_atsam/timer.o
                                                  .build/obj_massdrop_ctrl_default/quantum/keyboard.o
timer_read                                        .build/obj_massdrop_ctrl_default/platforms/arm_atsam/timer.o
                                                  .build/obj_massdrop_ctrl_default/quantum/process_keycode/process_space_cadet.o
                                                  .build/obj_massdrop_ctrl_default/quantum/keyboard.o
timer_read32                                      .build/obj_massdrop_ctrl_default/platforms/arm_atsam/timer.o
                                                  .build/obj_massdrop_ctrl_default/quantum/rgb_matrix/rgb_matrix.o
                                                  .build/obj_massdrop_ctrl_default/quantum/debounce/sym_defer_g.o
                                                  .build/obj_massdrop_ctrl_default/quantum/keyboard.o
                                                  .build/obj_massdrop_ctrl_default/keyboards/massdrop/ctrl/keymaps/default/keymap.o
timer_read64                                      .build/obj_massdrop_ctrl_default/platforms/arm_atsam/timer.o
                                                  .build/obj_massdrop_ctrl_default/protocol/arm_atsam/usb/usb_hub.o
                                                  .build/obj_massdrop_ctrl_default/protocol/arm_atsam/main_arm_atsam.o
                                                  .build/obj_massdrop_ctrl_default/protocol/arm_atsam/clks.o
tp_buttons                                        .build/obj_massdrop_ctrl_default/quantum/action.o
udc_config                                        .build/obj_massdrop_ctrl_default/protocol/arm_atsam/usb/udi_hid_kbd_desc.o
                                                  .build/obj_massdrop_ctrl_default/protocol/arm_atsam/usb/udc.o
udc_config_fshs                                   .build/obj_massdrop_ctrl_default/protocol/arm_atsam/usb/udi_hid_kbd_desc.o
udc_desc                                          .build/obj_massdrop_ctrl_default/protocol/arm_atsam/usb/udi_hid_kbd_desc.o
udc_device_desc                                   .build/obj_massdrop_ctrl_default/protocol/arm_atsam/usb/udi_hid_kbd_desc.o
udc_get_interface_desc                            .build/obj_massdrop_ctrl_default/protocol/arm_atsam/usb/udc.o
                                                  .build/obj_massdrop_ctrl_default/protocol/arm_atsam/usb/udi_hid.o
udc_process_setup                                 .build/obj_massdrop_ctrl_default/protocol/arm_atsam/usb/udc.o
                                                  .build/obj_massdrop_ctrl_default/protocol/arm_atsam/usb/usb_device_udd.o
udc_reset                                         .build/obj_massdrop_ctrl_default/protocol/arm_atsam/usb/udc.o
                                                  .build/obj_massdrop_ctrl_default/protocol/arm_atsam/usb/usb_device_udd.o
udc_sof_notify                                    .build/obj_massdrop_ctrl_default/protocol/arm_atsam/usb/udc.o
                                                  .build/obj_massdrop_ctrl_default/protocol/arm_atsam/usb/usb_device_udd.o
udc_start                                         .build/obj_massdrop_ctrl_default/protocol/arm_atsam/usb/udc.o
                                                  .build/obj_massdrop_ctrl_default/protocol/arm_atsam/main_arm_atsam.o
udc_stop                                          .build/obj_massdrop_ctrl_default/protocol/arm_atsam/usb/udc.o
udd_attach                                        .build/obj_massdrop_ctrl_default/protocol/arm_atsam/usb/usb_device_udd.o
udd_ctrl_buffer                                   .build/obj_massdrop_ctrl_default/protocol/arm_atsam/usb/usb_device_udd.o
udd_detach                                        .build/obj_massdrop_ctrl_default/protocol/arm_atsam/usb/usb_device_udd.o
udd_disable                                       .build/obj_massdrop_ctrl_default/protocol/arm_atsam/usb/usb_device_udd.o
                                                  .build/obj_massdrop_ctrl_default/protocol/arm_atsam/usb/udc.o
udd_enable                                        .build/obj_massdrop_ctrl_default/protocol/arm_atsam/usb/usb_device_udd.o
                                                  .build/obj_massdrop_ctrl_default/protocol/arm_atsam/usb/udc.o
udd_ep_abort                                      .build/obj_massdrop_ctrl_default/protocol/arm_atsam/usb/usb_device_udd.o
                                                  .build/obj_massdrop_ctrl_default/protocol/arm_atsam/usb/udc.o
udd_ep_alloc                                      .build/obj_massdrop_ctrl_default/protocol/arm_atsam/usb/usb_device_udd.o
                                                  .build/obj_massdrop_ctrl_default/protocol/arm_atsam/usb/udc.o
udd_ep_clear_halt                                 .build/obj_massdrop_ctrl_default/protocol/arm_atsam/usb/usb_device_udd.o
                                                  .build/obj_massdrop_ctrl_default/protocol/arm_atsam/usb/udc.o
udd_ep_free                                       .build/obj_massdrop_ctrl_default/protocol/arm_atsam/usb/usb_device_udd.o
                                                  .build/obj_massdrop_ctrl_default/protocol/arm_atsam/usb/udc.o
udd_ep_is_halted                                  .build/obj_massdrop_ctrl_default/protocol/arm_atsam/usb/usb_device_udd.o
                                                  .build/obj_massdrop_ctrl_default/protocol/arm_atsam/usb/udc.o
udd_ep_out_cache_buffer                           .build/obj_massdrop_ctrl_default/protocol/arm_atsam/usb/usb_device_udd.o
udd_ep_run                                        .build/obj_massdrop_ctrl_default/protocol/arm_atsam/usb/usb_device_udd.o
                                                  .build/obj_massdrop_ctrl_default/protocol/arm_atsam/usb/udi_hid_kbd.o
udd_ep_set_halt                                   .build/obj_massdrop_ctrl_default/protocol/arm_atsam/usb/usb_device_udd.o
                                                  .build/obj_massdrop_ctrl_default/protocol/arm_atsam/usb/udc.o
udd_ep_wait_stall_clear                           .build/obj_massdrop_ctrl_default/protocol/arm_atsam/usb/usb_device_udd.o
udd_g_ctrlreq                                     .build/obj_massdrop_ctrl_default/protocol/arm_atsam/usb/usb_device_udd.o
                                                  .build/obj_massdrop_ctrl_default/protocol/arm_atsam/usb/udi_hid_kbd.o
                                                  .build/obj_massdrop_ctrl_default/protocol/arm_atsam/usb/udi_hid.o
                                                  .build/obj_massdrop_ctrl_default/protocol/arm_atsam/usb/udc.o
udd_get_frame_number                              .build/obj_massdrop_ctrl_default/protocol/arm_atsam/usb/usb_device_udd.o
                                                  .build/obj_massdrop_ctrl_default/protocol/arm_atsam/usb/main_usb.o
udd_get_micro_frame_number                        .build/obj_massdrop_ctrl_default/protocol/arm_atsam/usb/usb_device_udd.o
udd_getaddress                                    .build/obj_massdrop_ctrl_default/protocol/arm_atsam/usb/usb_device_udd.o
                                                  .build/obj_massdrop_ctrl_default/protocol/arm_atsam/usb/udc.o
udd_is_high_speed                                 .build/obj_massdrop_ctrl_default/protocol/arm_atsam/usb/usb_device_udd.o
udd_send_remotewakeup                             .build/obj_massdrop_ctrl_default/protocol/arm_atsam/usb/usb_device_udd.o
                                                  .build/obj_massdrop_ctrl_default/protocol/arm_atsam/main_arm_atsam.o
udd_set_address                                   .build/obj_massdrop_ctrl_default/protocol/arm_atsam/usb/usb_device_udd.o
                                                  .build/obj_massdrop_ctrl_default/protocol/arm_atsam/usb/udc.o
udd_set_setup_payload                             .build/obj_massdrop_ctrl_default/protocol/arm_atsam/usb/usb_device_udd.o
                                                  .build/obj_massdrop_ctrl_default/protocol/arm_atsam/usb/udc.o
udi_api_hid_exk                                   .build/obj_massdrop_ctrl_default/protocol/arm_atsam/usb/udi_hid_kbd.o
                                                  .build/obj_massdrop_ctrl_default/protocol/arm_atsam/usb/udi_hid_kbd_desc.o
udi_api_hid_kbd                                   .build/obj_massdrop_ctrl_default/protocol/arm_atsam/usb/udi_hid_kbd.o
                                                  .build/obj_massdrop_ctrl_default/protocol/arm_atsam/usb/udi_hid_kbd_desc.o
udi_api_hid_nkro                                  .build/obj_massdrop_ctrl_default/protocol/arm_atsam/usb/udi_hid_kbd.o
                                                  .build/obj_massdrop_ctrl_default/protocol/arm_atsam/usb/udi_hid_kbd_desc.o
udi_apis                                          .build/obj_massdrop_ctrl_default/protocol/arm_atsam/usb/udi_hid_kbd_desc.o
udi_hid_exk_b_report_valid                        .build/obj_massdrop_ctrl_default/protocol/arm_atsam/usb/udi_hid_kbd.o
                                                  .build/obj_massdrop_ctrl_default/protocol/arm_atsam/main_arm_atsam.o
udi_hid_exk_disable                               .build/obj_massdrop_ctrl_default/protocol/arm_atsam/usb/udi_hid_kbd.o
udi_hid_exk_enable                                .build/obj_massdrop_ctrl_default/protocol/arm_atsam/usb/udi_hid_kbd.o
udi_hid_exk_getsetting                            .build/obj_massdrop_ctrl_default/protocol/arm_atsam/usb/udi_hid_kbd.o
udi_hid_exk_report                                .build/obj_massdrop_ctrl_default/protocol/arm_atsam/usb/udi_hid_kbd.o
                                                  .build/obj_massdrop_ctrl_default/protocol/arm_atsam/main_arm_atsam.o
udi_hid_exk_report_desc                           .build/obj_massdrop_ctrl_default/protocol/arm_atsam/usb/udi_hid_kbd.o
udi_hid_exk_report_set                            .build/obj_massdrop_ctrl_default/protocol/arm_atsam/usb/udi_hid_kbd.o
udi_hid_exk_send_report                           .build/obj_massdrop_ctrl_default/protocol/arm_atsam/usb/udi_hid_kbd.o
                                                  .build/obj_massdrop_ctrl_default/protocol/arm_atsam/main_arm_atsam.o
udi_hid_exk_setup                                 .build/obj_massdrop_ctrl_default/protocol/arm_atsam/usb/udi_hid_kbd.o
udi_hid_kbd_b_report_trans_ongoing                .build/obj_massdrop_ctrl_default/protocol/arm_atsam/usb/udi_hid_kbd.o
                                                  .build/obj_massdrop_ctrl_default/protocol/arm_atsam/main_arm_atsam.o
udi_hid_kbd_b_report_valid                        .build/obj_massdrop_ctrl_default/protocol/arm_atsam/usb/udi_hid_kbd.o
                                                  .build/obj_massdrop_ctrl_default/protocol/arm_atsam/main_arm_atsam.o
udi_hid_kbd_disable                               .build/obj_massdrop_ctrl_default/protocol/arm_atsam/usb/udi_hid_kbd.o
udi_hid_kbd_enable                                .build/obj_massdrop_ctrl_default/protocol/arm_atsam/usb/udi_hid_kbd.o
udi_hid_kbd_getsetting                            .build/obj_massdrop_ctrl_default/protocol/arm_atsam/usb/udi_hid_kbd.o
udi_hid_kbd_report                                .build/obj_massdrop_ctrl_default/protocol/arm_atsam/usb/udi_hid_kbd.o
                                                  .build/obj_massdrop_ctrl_default/protocol/arm_atsam/main_arm_atsam.o
udi_hid_kbd_report_desc                           .build/obj_massdrop_ctrl_default/protocol/arm_atsam/usb/udi_hid_kbd.o
udi_hid_kbd_report_set                            .build/obj_massdrop_ctrl_default/protocol/arm_atsam/usb/udi_hid_kbd.o
                                                  .build/obj_massdrop_ctrl_default/protocol/arm_atsam/main_arm_atsam.o
udi_hid_kbd_send_report                           .build/obj_massdrop_ctrl_default/protocol/arm_atsam/usb/udi_hid_kbd.o
                                                  .build/obj_massdrop_ctrl_default/protocol/arm_atsam/main_arm_atsam.o
udi_hid_kbd_setup                                 .build/obj_massdrop_ctrl_default/protocol/arm_atsam/usb/udi_hid_kbd.o
udi_hid_nkro_b_report_trans_ongoing               .build/obj_massdrop_ctrl_default/protocol/arm_atsam/usb/udi_hid_kbd.o
                                                  .build/obj_massdrop_ctrl_default/protocol/arm_atsam/main_arm_atsam.o
udi_hid_nkro_b_report_valid                       .build/obj_massdrop_ctrl_default/protocol/arm_atsam/usb/udi_hid_kbd.o
                                                  .build/obj_massdrop_ctrl_default/protocol/arm_atsam/main_arm_atsam.o
udi_hid_nkro_disable                              .build/obj_massdrop_ctrl_default/protocol/arm_atsam/usb/udi_hid_kbd.o
udi_hid_nkro_enable                               .build/obj_massdrop_ctrl_default/protocol/arm_atsam/usb/udi_hid_kbd.o
udi_hid_nkro_getsetting                           .build/obj_massdrop_ctrl_default/protocol/arm_atsam/usb/udi_hid_kbd.o
udi_hid_nkro_report                               .build/obj_massdrop_ctrl_default/protocol/arm_atsam/usb/udi_hid_kbd.o
                                                  .build/obj_massdrop_ctrl_default/protocol/arm_atsam/main_arm_atsam.o
udi_hid_nkro_report_desc                          .build/obj_massdrop_ctrl_default/protocol/arm_atsam/usb/udi_hid_kbd.o
udi_hid_nkro_report_set                           .build/obj_massdrop_ctrl_default/protocol/arm_atsam/usb/udi_hid_kbd.o
                                                  .build/obj_massdrop_ctrl_default/protocol/arm_atsam/main_arm_atsam.o
udi_hid_nkro_send_report                          .build/obj_massdrop_ctrl_default/protocol/arm_atsam/usb/udi_hid_kbd.o
                                                  .build/obj_massdrop_ctrl_default/protocol/arm_atsam/main_arm_atsam.o
udi_hid_nkro_setup                                .build/obj_massdrop_ctrl_default/protocol/arm_atsam/usb/udi_hid_kbd.o
udi_hid_setup                                     .build/obj_massdrop_ctrl_default/protocol/arm_atsam/usb/udi_hid.o
                                                  .build/obj_massdrop_ctrl_default/protocol/arm_atsam/usb/udi_hid_kbd.o
ui_init                                           .build/obj_massdrop_ctrl_default/protocol/arm_atsam/usb/ui.o
ui_kbd_led                                        .build/obj_massdrop_ctrl_default/protocol/arm_atsam/usb/ui.o
ui_powerdown                                      .build/obj_massdrop_ctrl_default/protocol/arm_atsam/usb/ui.o
                                                  .build/obj_massdrop_ctrl_default/protocol/arm_atsam/usb/main_usb.o
ui_process                                        .build/obj_massdrop_ctrl_default/protocol/arm_atsam/usb/ui.o
                                                  .build/obj_massdrop_ctrl_default/protocol/arm_atsam/usb/main_usb.o
ui_wakeup                                         .build/obj_massdrop_ctrl_default/protocol/arm_atsam/usb/ui.o
                                                  .build/obj_massdrop_ctrl_default/protocol/arm_atsam/usb/main_usb.o
ui_wakeup_disable                                 .build/obj_massdrop_ctrl_default/protocol/arm_atsam/usb/ui.o
                                                  .build/obj_massdrop_ctrl_default/protocol/arm_atsam/usb/main_usb.o
ui_wakeup_enable                                  .build/obj_massdrop_ctrl_default/protocol/arm_atsam/usb/ui.o
                                                  .build/obj_massdrop_ctrl_default/protocol/arm_atsam/usb/main_usb.o
unregister_code                                   .build/obj_massdrop_ctrl_default/quantum/action.o
                                                  .build/obj_massdrop_ctrl_default/quantum/action_macro.o
                                                  .build/obj_massdrop_ctrl_default/quantum/send_string.o
                                                  .build/obj_massdrop_ctrl_default/quantum/quantum.o
unregister_code16                                 .build/obj_massdrop_ctrl_default/quantum/quantum.o
unregister_mods                                   .build/obj_massdrop_ctrl_default/quantum/action.o
                                                  .build/obj_massdrop_ctrl_default/quantum/process_keycode/process_space_cadet.o
                                                  .build/obj_massdrop_ctrl_default/quantum/quantum.o
unregister_weak_mods                              .build/obj_massdrop_ctrl_default/quantum/action.o
                                                  .build/obj_massdrop_ctrl_default/quantum/quantum.o
update_source_layers_cache                        .build/obj_massdrop_ctrl_default/quantum/action_layer.o
                                                  .build/obj_massdrop_ctrl_default/quantum/quantum.o
update_tri_layer                                  .build/obj_massdrop_ctrl_default/quantum/quantum.o
update_tri_layer_state                            .build/obj_massdrop_ctrl_default/quantum/quantum.o
usb_connected_state                               .build/obj_massdrop_ctrl_default/protocol/usb_util.o
usb_descriptor_table                              .build/obj_massdrop_ctrl_default/protocol/arm_atsam/usb/usb.o
usb_device                                        .build/obj_massdrop_ctrl_default/protocol/arm_atsam/usb/usb_device_udd.o
usb_device_disable_callback                       .build/obj_massdrop_ctrl_default/protocol/arm_atsam/usb/usb.o
                                                  .build/obj_massdrop_ctrl_default/protocol/arm_atsam/usb/usb_device_udd.o
usb_device_enable_callback                        .build/obj_massdrop_ctrl_default/protocol/arm_atsam/usb/usb.o
                                                  .build/obj_massdrop_ctrl_default/protocol/arm_atsam/usb/usb_device_udd.o
usb_device_endpoint_abort_job                     .build/obj_massdrop_ctrl_default/protocol/arm_atsam/usb/usb.o
                                                  .build/obj_massdrop_ctrl_default/protocol/arm_atsam/usb/usb_device_udd.o
usb_device_endpoint_clear_halt                    .build/obj_massdrop_ctrl_default/protocol/arm_atsam/usb/usb.o
                                                  .build/obj_massdrop_ctrl_default/protocol/arm_atsam/usb/usb_device_udd.o
usb_device_endpoint_disable_callback              .build/obj_massdrop_ctrl_default/protocol/arm_atsam/usb/usb.o
                                                  .build/obj_massdrop_ctrl_default/protocol/arm_atsam/usb/usb_device_udd.o
usb_device_endpoint_enable_callback               .build/obj_massdrop_ctrl_default/protocol/arm_atsam/usb/usb.o
                                                  .build/obj_massdrop_ctrl_default/protocol/arm_atsam/usb/usb_device_udd.o
usb_device_endpoint_get_config_defaults           .build/obj_massdrop_ctrl_default/protocol/arm_atsam/usb/usb.o
                                                  .build/obj_massdrop_ctrl_default/protocol/arm_atsam/usb/usb_device_udd.o
usb_device_endpoint_is_configured                 .build/obj_massdrop_ctrl_default/protocol/arm_atsam/usb/usb.o
                                                  .build/obj_massdrop_ctrl_default/protocol/arm_atsam/usb/usb_device_udd.o
usb_device_endpoint_is_halted                     .build/obj_massdrop_ctrl_default/protocol/arm_atsam/usb/usb.o
                                                  .build/obj_massdrop_ctrl_default/protocol/arm_atsam/usb/usb_device_udd.o
usb_device_endpoint_read_buffer_job               .build/obj_massdrop_ctrl_default/protocol/arm_atsam/usb/usb.o
                                                  .build/obj_massdrop_ctrl_default/protocol/arm_atsam/usb/usb_device_udd.o
usb_device_endpoint_register_callback             .build/obj_massdrop_ctrl_default/protocol/arm_atsam/usb/usb.o
                                                  .build/obj_massdrop_ctrl_default/protocol/arm_atsam/usb/usb_device_udd.o
usb_device_endpoint_set_config                    .build/obj_massdrop_ctrl_default/protocol/arm_atsam/usb/usb.o
                                                  .build/obj_massdrop_ctrl_default/protocol/arm_atsam/usb/usb_device_udd.o
usb_device_endpoint_set_halt                      .build/obj_massdrop_ctrl_default/protocol/arm_atsam/usb/usb.o
                                                  .build/obj_massdrop_ctrl_default/protocol/arm_atsam/usb/usb_device_udd.o
usb_device_endpoint_setup_buffer_job              .build/obj_massdrop_ctrl_default/protocol/arm_atsam/usb/usb.o
                                                  .build/obj_massdrop_ctrl_default/protocol/arm_atsam/usb/usb_device_udd.o
usb_device_endpoint_unregister_callback           .build/obj_massdrop_ctrl_default/protocol/arm_atsam/usb/usb.o
                                                  .build/obj_massdrop_ctrl_default/protocol/arm_atsam/usb/usb_device_udd.o
usb_device_endpoint_write_buffer_job              .build/obj_massdrop_ctrl_default/protocol/arm_atsam/usb/usb.o
                                                  .build/obj_massdrop_ctrl_default/protocol/arm_atsam/usb/usb_device_udd.o
usb_device_register_callback                      .build/obj_massdrop_ctrl_default/protocol/arm_atsam/usb/usb.o
                                                  .build/obj_massdrop_ctrl_default/protocol/arm_atsam/usb/usb_device_udd.o
usb_device_serial_name_size                       .build/obj_massdrop_ctrl_default/protocol/arm_atsam/usb/udc.o
usb_device_state                                  .build/obj_massdrop_ctrl_default/protocol/usb_device_state.o
usb_device_state_init                             .build/obj_massdrop_ctrl_default/protocol/usb_device_state.o
usb_device_state_set_configuration                .build/obj_massdrop_ctrl_default/protocol/usb_device_state.o
usb_device_state_set_reset                        .build/obj_massdrop_ctrl_default/protocol/usb_device_state.o
usb_device_state_set_resume                       .build/obj_massdrop_ctrl_default/protocol/usb_device_state.o
usb_device_state_set_suspend                      .build/obj_massdrop_ctrl_default/protocol/usb_device_state.o
usb_device_unregister_callback                    .build/obj_massdrop_ctrl_default/protocol/arm_atsam/usb/usb.o
usb_disable                                       .build/obj_massdrop_ctrl_default/protocol/arm_atsam/usb/usb.o
usb_disconnect                                    .build/obj_massdrop_ctrl_default/protocol/usb_util.o
usb_enable                                        .build/obj_massdrop_ctrl_default/protocol/arm_atsam/usb/usb.o
                                                  .build/obj_massdrop_ctrl_default/protocol/arm_atsam/usb/usb_device_udd.o
usb_extra_manual                                  .build/obj_massdrop_ctrl_default/protocol/arm_atsam/usb/usb_hub.o
                                                  .build/obj_massdrop_ctrl_default/protocol/arm_atsam/md_rgb_matrix.o
                                                  .build/obj_massdrop_ctrl_default/keyboards/massdrop/ctrl/keymaps/default/keymap.o
usb_extra_state                                   .build/obj_massdrop_ctrl_default/protocol/arm_atsam/usb/usb_hub.o
                                                  .build/obj_massdrop_ctrl_default/protocol/arm_atsam/md_rgb_matrix.o
usb_gcr_auto                                      .build/obj_massdrop_ctrl_default/protocol/arm_atsam/usb/usb_hub.o
                                                  .build/obj_massdrop_ctrl_default/protocol/arm_atsam/md_rgb_matrix.o
                                                  .build/obj_massdrop_ctrl_default/keyboards/massdrop/ctrl/keymaps/default/keymap.o
usb_get_config_defaults                           .build/obj_massdrop_ctrl_default/protocol/arm_atsam/usb/usb.o
                                                  .build/obj_massdrop_ctrl_default/protocol/arm_atsam/usb/usb_device_udd.o
usb_host_port                                     .build/obj_massdrop_ctrl_default/protocol/arm_atsam/usb/usb_hub.o
usb_init                                          .build/obj_massdrop_ctrl_default/protocol/arm_atsam/usb/usb.o
                                                  .build/obj_massdrop_ctrl_default/protocol/arm_atsam/usb/usb_device_udd.o
usb_vbus_state                                    .build/obj_massdrop_ctrl_default/protocol/usb_util.o
usec_delay_mult                                   .build/obj_massdrop_ctrl_default/protocol/arm_atsam/clks.o
v_5v                                              .build/obj_massdrop_ctrl_default/protocol/arm_atsam/adc.o
                                                  .build/obj_massdrop_ctrl_default/protocol/arm_atsam/usb/usb_hub.o
                                                  .build/obj_massdrop_ctrl_default/protocol/arm_atsam/main_arm_atsam.o
                                                  .build/obj_massdrop_ctrl_default/protocol/arm_atsam/md_rgb_matrix.o
v_5v_avg                                          .build/obj_massdrop_ctrl_default/protocol/arm_atsam/adc.o
                                                  .build/obj_massdrop_ctrl_default/protocol/arm_atsam/main_arm_atsam.o
                                                  .build/obj_massdrop_ctrl_default/protocol/arm_atsam/md_rgb_matrix.o
v_con_1                                           .build/obj_massdrop_ctrl_default/protocol/arm_atsam/adc.o
                                                  .build/obj_massdrop_ctrl_default/protocol/arm_atsam/usb/usb_hub.o
v_con_1_boot                                      .build/obj_massdrop_ctrl_default/protocol/arm_atsam/adc.o
                                                  .build/obj_massdrop_ctrl_default/protocol/arm_atsam/usb/usb_hub.o
v_con_2                                           .build/obj_massdrop_ctrl_default/protocol/arm_atsam/adc.o
                                                  .build/obj_massdrop_ctrl_default/protocol/arm_atsam/usb/usb_hub.o
v_con_2_boot                                      .build/obj_massdrop_ctrl_default/protocol/arm_atsam/adc.o
                                                  .build/obj_massdrop_ctrl_default/protocol/arm_atsam/usb/usb_hub.o
vprintf_                                          .build/obj_massdrop_ctrl_default/lib/printf/printf.o
vsnprintf_                                        .build/obj_massdrop_ctrl_default/lib/printf/printf.o
